///////////////////////////////////////////////////////////////////////////////
//                                                                            /
// IAR C/C++ Compiler V8.10.1.10194/W32 for 8051        25/Apr/2015  12:10:02 /
// Copyright 2004-2011 IAR Systems AB.                                        /
//                                                                            /
//    Core               =  plain                                             /
//    Code model         =  banked                                            /
//    Data model         =  large                                             /
//    Calling convention =  xdata reentrant                                   /
//    Constant location  =  data_rom                                          /
//    Dptr setup         =  1,16                                              /
//    Source file        =  H:\User\workplace\NISL_ZStack-CC2530-2.3.0-1.4.0\ /
//                          Projects\zstack\Samples\SampleApp--version        /
//                          1.0_2015.4.24\Source\SampleApp.c                  /
//    Command line       =  -f "H:\User\workplace\NISL_ZStack-CC2530-2.3.0-1. /
//                          4.0\Projects\zstack\Samples\SampleApp--version    /
//                          1.0_2015.4.24\CC2530DB\..\..\..\Tools\CC2530DB\f8 /
//                          wEndev.cfg" (-DCPU32MHZ -DROOT=__near_func        /
//                          -DBLINK_LEDS) -f "H:\User\workplace\NISL_ZStack-C /
//                          C2530-2.3.0-1.4.0\Projects\zstack\Samples\SampleA /
//                          pp--version 1.0_2015.4.24\CC2530DB\..\..\..\Tools /
//                          \CC2530DB\f8wConfig.cfg" (-DSECURE=0              /
//                          -DZG_SECURE_DYNAMIC=0 -DREFLECTOR                 /
//                          -DDEFAULT_CHANLIST=0x00000800                     /
//                          -DZDAPP_CONFIG_PAN_ID=0xFFF1                      /
//                          -DNWK_START_DELAY=100 -DEXTENDED_JOINING_RANDOM_M /
//                          ASK=0x007F -DBEACON_REQUEST_DELAY=100             /
//                          -DBEACON_REQ_DELAY_MASK=0x00FF                    /
//                          -DROUTE_EXPIRY_TIME=30 -DAPSC_ACK_WAIT_DURATION_P /
//                          OLLED=3000 -DNWK_INDIRECT_MSG_TIMEOUT=7           /
//                          -DMAX_RREQ_ENTRIES=8 -DAPSC_MAX_FRAME_RETRIES=3   /
//                          -DNWK_MAX_DATA_RETRIES=2                          /
//                          -DMAX_POLL_FAILURE_RETRIES=2 -DMAX_BCAST=9        /
//                          -DAPS_MAX_GROUPS=16 -DMAX_RTG_ENTRIES=40          /
//                          -DNWK_MAX_BINDING_ENTRIES=4                       /
//                          -DMAX_BINDING_CLUSTER_IDS=4                       /
//                          "-DDEFAULT_KEY={0x01, 0x03, 0x05, 0x07, 0x09,     /
//                          0x0B, 0x0D, 0x0F, 0x00, 0x02, 0x04, 0x06, 0x08,   /
//                          0x0A, 0x0C, 0x0D}" -DMAC_MAX_FRAME_SIZE=116       /
//                          "-DCONST=const __code" -DGENERIC=__generic        /
//                          -DRFD_RCVC_ALWAYS_ON=FALSE -DPOLL_RATE=0          /
//                          -DQUEUED_POLL_RATE=0 -DRESPONSE_POLL_RATE=0)      /
//                          -DREJOIN_POLL_RATE=440 "H:\User\workplace\NISL_ZS /
//                          tack-CC2530-2.3.0-1.4.0\Projects\zstack\Samples\S /
//                          ampleApp--version 1.0_2015.4.24\Source\SampleApp. /
//                          c" -D ZIGBEEPRO -D NWK_AUTO_POLL -D ZTOOL_P1 -D   /
//                          xMT_TASK -D xMT_SYS_FUNC -D xMT_ZDO_FUNC -D       /
//                          LCD_SUPPORTED=DEBUG -D POWER_SAVING -lC           /
//                          "H:\User\workplace\NISL_ZStack-CC2530-2.3.0-1.4.0 /
//                          \Projects\zstack\Samples\SampleApp--version       /
//                          1.0_2015.4.24\CC2530DB\EndDeviceEB-Pro\List\"     /
//                          -lA "H:\User\workplace\NISL_ZStack-CC2530-2.3.0-1 /
//                          .4.0\Projects\zstack\Samples\SampleApp--version   /
//                          1.0_2015.4.24\CC2530DB\EndDeviceEB-Pro\List\"     /
//                          --diag_suppress Pe001,Pa010 -o                    /
//                          "H:\User\workplace\NISL_ZStack-CC2530-2.3.0-1.4.0 /
//                          \Projects\zstack\Samples\SampleApp--version       /
//                          1.0_2015.4.24\CC2530DB\EndDeviceEB-Pro\Obj\" -e   /
//                          --debug --core=plain --dptr=16,1                  /
//                          --data_model=large --code_model=banked            /
//                          --calling_convention=xdata_reentrant              /
//                          --place_constants=data_rom --nr_virtual_regs 16   /
//                          -I "H:\User\workplace\NISL_ZStack-CC2530-2.3.0-1. /
//                          4.0\Projects\zstack\Samples\SampleApp--version    /
//                          1.0_2015.4.24\CC2530DB\" -I                       /
//                          "H:\User\workplace\NISL_ZStack-CC2530-2.3.0-1.4.0 /
//                          \Projects\zstack\Samples\SampleApp--version       /
//                          1.0_2015.4.24\CC2530DB\..\SOURCE\" -I             /
//                          "H:\User\workplace\NISL_ZStack-CC2530-2.3.0-1.4.0 /
//                          \Projects\zstack\Samples\SampleApp--version       /
//                          1.0_2015.4.24\CC2530DB\..\..\..\ZMAIN\TI2530DB\"  /
//                          -I "H:\User\workplace\NISL_ZStack-CC2530-2.3.0-1. /
//                          4.0\Projects\zstack\Samples\SampleApp--version    /
//                          1.0_2015.4.24\CC2530DB\..\..\..\..\..\COMPONENTS\ /
//                          MT\" -I "H:\User\workplace\NISL_ZStack-CC2530-2.3 /
//                          .0-1.4.0\Projects\zstack\Samples\SampleApp--versi /
//                          on 1.0_2015.4.24\CC2530DB\..\..\..\..\..\COMPONEN /
//                          TS\HAL\INCLUDE\" -I "H:\User\workplace\NISL_ZStac /
//                          k-CC2530-2.3.0-1.4.0\Projects\zstack\Samples\Samp /
//                          leApp--version 1.0_2015.4.24\CC2530DB\..\..\..\.. /
//                          \..\COMPONENTS\HAL\TARGET\CC2530EB\" -I           /
//                          "H:\User\workplace\NISL_ZStack-CC2530-2.3.0-1.4.0 /
//                          \Projects\zstack\Samples\SampleApp--version       /
//                          1.0_2015.4.24\CC2530DB\..\..\..\..\..\COMPONENTS\ /
//                          OSAL\MCU\CCSOC\" -I "H:\User\workplace\NISL_ZStac /
//                          k-CC2530-2.3.0-1.4.0\Projects\zstack\Samples\Samp /
//                          leApp--version 1.0_2015.4.24\CC2530DB\..\..\..\.. /
//                          \..\COMPONENTS\OSAL\INCLUDE\" -I                  /
//                          "H:\User\workplace\NISL_ZStack-CC2530-2.3.0-1.4.0 /
//                          \Projects\zstack\Samples\SampleApp--version       /
//                          1.0_2015.4.24\CC2530DB\..\..\..\..\..\COMPONENTS\ /
//                          STACK\AF\" -I "H:\User\workplace\NISL_ZStack-CC25 /
//                          30-2.3.0-1.4.0\Projects\zstack\Samples\SampleApp- /
//                          -version 1.0_2015.4.24\CC2530DB\..\..\..\..\..\CO /
//                          MPONENTS\STACK\NWK\" -I                           /
//                          "H:\User\workplace\NISL_ZStack-CC2530-2.3.0-1.4.0 /
//                          \Projects\zstack\Samples\SampleApp--version       /
//                          1.0_2015.4.24\CC2530DB\..\..\..\..\..\COMPONENTS\ /
//                          STACK\SEC\" -I "H:\User\workplace\NISL_ZStack-CC2 /
//                          530-2.3.0-1.4.0\Projects\zstack\Samples\SampleApp /
//                          --version 1.0_2015.4.24\CC2530DB\..\..\..\..\..\C /
//                          OMPONENTS\STACK\SAPI\" -I                         /
//                          "H:\User\workplace\NISL_ZStack-CC2530-2.3.0-1.4.0 /
//                          \Projects\zstack\Samples\SampleApp--version       /
//                          1.0_2015.4.24\CC2530DB\..\..\..\..\..\COMPONENTS\ /
//                          STACK\SYS\" -I "H:\User\workplace\NISL_ZStack-CC2 /
//                          530-2.3.0-1.4.0\Projects\zstack\Samples\SampleApp /
//                          --version 1.0_2015.4.24\CC2530DB\..\..\..\..\..\C /
//                          OMPONENTS\STACK\ZDO\" -I                          /
//                          "H:\User\workplace\NISL_ZStack-CC2530-2.3.0-1.4.0 /
//                          \Projects\zstack\Samples\SampleApp--version       /
//                          1.0_2015.4.24\CC2530DB\..\..\..\..\..\COMPONENTS\ /
//                          ZMAC\F8W\" -I "H:\User\workplace\NISL_ZStack-CC25 /
//                          30-2.3.0-1.4.0\Projects\zstack\Samples\SampleApp- /
//                          -version 1.0_2015.4.24\CC2530DB\..\..\..\..\..\CO /
//                          MPONENTS\ZMAC\" -I "H:\User\workplace\NISL_ZStack /
//                          -CC2530-2.3.0-1.4.0\Projects\zstack\Samples\Sampl /
//                          eApp--version 1.0_2015.4.24\CC2530DB\..\..\..\..\ /
//                          ..\COMPONENTS\SERVICES\SADDR\" -I                 /
//                          "H:\User\workplace\NISL_ZStack-CC2530-2.3.0-1.4.0 /
//                          \Projects\zstack\Samples\SampleApp--version       /
//                          1.0_2015.4.24\CC2530DB\..\..\..\..\..\COMPONENTS\ /
//                          SERVICES\SDATA\" -I "H:\User\workplace\NISL_ZStac /
//                          k-CC2530-2.3.0-1.4.0\Projects\zstack\Samples\Samp /
//                          leApp--version 1.0_2015.4.24\CC2530DB\..\..\..\.. /
//                          \..\COMPONENTS\MAC\INCLUDE\" -I                   /
//                          "H:\User\workplace\NISL_ZStack-CC2530-2.3.0-1.4.0 /
//                          \Projects\zstack\Samples\SampleApp--version       /
//                          1.0_2015.4.24\CC2530DB\..\..\..\..\..\COMPONENTS\ /
//                          MAC\HIGH_LEVEL\" -I "H:\User\workplace\NISL_ZStac /
//                          k-CC2530-2.3.0-1.4.0\Projects\zstack\Samples\Samp /
//                          leApp--version 1.0_2015.4.24\CC2530DB\..\..\..\.. /
//                          \..\COMPONENTS\MAC\LOW_LEVEL\srf04\" -I           /
//                          "H:\User\workplace\NISL_ZStack-CC2530-2.3.0-1.4.0 /
//                          \Projects\zstack\Samples\SampleApp--version       /
//                          1.0_2015.4.24\CC2530DB\..\..\..\..\..\COMPONENTS\ /
//                          MAC\LOW_LEVEL\srf04\SINGLE_CHIP\" -Ohz            /
//                          --require_prototypes                              /
//    List file          =  H:\User\workplace\NISL_ZStack-CC2530-2.3.0-1.4.0\ /
//                          Projects\zstack\Samples\SampleApp--version        /
//                          1.0_2015.4.24\CC2530DB\EndDeviceEB-Pro\List\Sampl /
//                          eApp.s51                                          /
//                                                                            /
//                                                                            /
///////////////////////////////////////////////////////////////////////////////

        NAME SampleApp

        RTMODEL "__SystemLibrary", "CLib"
        RTMODEL "__calling_convention", "xdata_reentrant"
        RTMODEL "__code_model", "banked"
        RTMODEL "__core", "plain"
        RTMODEL "__data_model", "large"
        RTMODEL "__dptr_size", "16"
        RTMODEL "__extended_stack", "disabled"
        RTMODEL "__location_for_constants", "data"
        RTMODEL "__number_of_dptrs", "1"
        RTMODEL "__rt_version", "1"

        RSEG DOVERLAY:DATA:NOROOT(0)
        RSEG IOVERLAY:IDATA:NOROOT(0)
        RSEG ISTACK:IDATA:NOROOT(0)
        RSEG PSTACK:XDATA:NOROOT(0)
        RSEG XSTACK:XDATA:NOROOT(0)

        EXTERN ?ALLOC_XSTACK8
        EXTERN ?BANKED_ENTER_XDATA
        EXTERN ?BANKED_LEAVE_XDATA
        EXTERN ?BDISPATCH
        EXTERN ?BRET
        EXTERN ?DEALLOC_XSTACK8
        EXTERN ?MOVE_LONG8_XDATA_XDATA
        EXTERN ?PUSH_XSTACK_I_ONE
        EXTERN ?PUSH_XSTACK_I_THREE
        EXTERN ?PUSH_XSTACK_I_TWO
        EXTERN ?US_SHR
        EXTERN ?US_SWITCH_DENSE
        EXTERN ?V0
        EXTERN ?XSP
        EXTERN ?XSTACK_DISP0_8
        EXTERN __INIT_XDATA_Z

        PUBLIC ??SampleApp_HandleKeys?relay
        FUNCTION ??SampleApp_HandleKeys?relay,0203H
        PUBLIC ??SampleApp_Init?relay
        FUNCTION ??SampleApp_Init?relay,0203H
        PUBLIC ??SampleApp_MessageMSGCB?relay
        FUNCTION ??SampleApp_MessageMSGCB?relay,0203H
        PUBLIC ??SampleApp_ProcessEvent?relay
        FUNCTION ??SampleApp_ProcessEvent?relay,0203H
        PUBLIC ??SampleApp_SendFlashMessage?relay
        FUNCTION ??SampleApp_SendFlashMessage?relay,0203H
        PUBLIC ??SampleApp_SendPeriodicMessage?relay
        FUNCTION ??SampleApp_SendPeriodicMessage?relay,0203H
        PUBLIC SampleAppFlashCounter
        PUBLIC SampleAppPeriodicCounter
        PUBLIC SampleApp_ClusterList
        PUBLIC SampleApp_Flash_DstAddr
        PUBLIC SampleApp_Group
        PUBLIC SampleApp_HandleKeys
        FUNCTION SampleApp_HandleKeys,021203H
        ARGFRAME XSTACK, 12, STACK
        ARGFRAME IOVERLAY, 0, STATIC
        ARGFRAME DOVERLAY, 0, STATIC
        LOCFRAME XSTACK, 10, STACK
        PUBLIC SampleApp_Init
        FUNCTION SampleApp_Init,021203H
        ARGFRAME XSTACK, 0, STACK
        LOCFRAME XSTACK, 14, STACK
        PUBLIC SampleApp_MessageMSGCB
        FUNCTION SampleApp_MessageMSGCB,0a1203H
        ARGFRAME XSTACK, 12, STACK
        ARGFRAME IOVERLAY, 0, STATIC
        ARGFRAME DOVERLAY, 0, STATIC
        LOCFRAME XSTACK, 12, STACK
        PUBLIC SampleApp_NwkState
        PUBLIC SampleApp_Periodic_DstAddr
        PUBLIC SampleApp_ProcessEvent
        FUNCTION SampleApp_ProcessEvent,021203H
        ARGFRAME XSTACK, 0, STACK
        LOCFRAME XSTACK, 12, STACK
        PUBLIC SampleApp_SendFlashMessage
        FUNCTION SampleApp_SendFlashMessage,021203H
        ARGFRAME XSTACK, 10, STACK
        ARGFRAME IOVERLAY, 0, STATIC
        ARGFRAME DOVERLAY, 0, STATIC
        LOCFRAME ISTACK, 1, STACK
        LOCFRAME XSTACK, 22, STACK
        PUBLIC SampleApp_SendPeriodicMessage
        FUNCTION SampleApp_SendPeriodicMessage,021203H
        ARGFRAME XSTACK, 12, STACK
        ARGFRAME IOVERLAY, 0, STATIC
        ARGFRAME DOVERLAY, 0, STATIC
        LOCFRAME ISTACK, 4, STACK
        LOCFRAME XSTACK, 11, STACK
        PUBLIC SampleApp_SimpleDesc
        PUBLIC SampleApp_TaskID
        PUBLIC SampleApp_TransID
        PUBLIC SampleApp_epDesc
        PUBLIC ZLC_Count
        PUBLIC flag
        PUBLIC re
        
        CFI Names cfiNames0
        CFI StackFrame CFA_SP SP IDATA
        CFI StackFrame CFA_PSP16 PSP16 XDATA
        CFI StackFrame CFA_XSP16 XSP16 XDATA
        CFI StaticOverlayFrame CFA_IOVERLAY IOVERLAY
        CFI StaticOverlayFrame CFA_DOVERLAY DOVERLAY
        CFI Resource `PSW.CY`:1, `B.BR0`:1, `B.BR1`:1, `B.BR2`:1, `B.BR3`:1
        CFI Resource `B.BR4`:1, `B.BR5`:1, `B.BR6`:1, `B.BR7`:1, `VB.BR8`:1
        CFI Resource `VB.BR9`:1, `VB.BR10`:1, `VB.BR11`:1, `VB.BR12`:1
        CFI Resource `VB.BR13`:1, `VB.BR14`:1, `VB.BR15`:1, VB:8, B:8, A:8
        CFI Resource PSW:8, DPL0:8, DPH0:8, R0:8, R1:8, R2:8, R3:8, R4:8, R5:8
        CFI Resource R6:8, R7:8, V0:8, V1:8, V2:8, V3:8, V4:8, V5:8, V6:8, V7:8
        CFI Resource V8:8, V9:8, V10:8, V11:8, V12:8, V13:8, V14:8, V15:8, SP:8
        CFI Resource PSPH:8, PSPL:8, PSP16:16, XSPH:8, XSPL:8, XSP16:16
        CFI VirtualResource ?RET:24
        CFI Resource ?BRET_EXT:8
        CFI VirtualResource ?RET_HIGH:8, ?RET_LOW:8
        CFI ResourceParts PSP16 PSPH, PSPL
        CFI ResourceParts XSP16 XSPH, XSPL
        CFI ResourceParts ?RET ?BRET_EXT, ?RET_HIGH, ?RET_LOW
        CFI EndNames cfiNames0
        
        CFI Common cfiCommon0 Using cfiNames0
        CFI CodeAlign 1
        CFI DataAlign -1
        CFI ReturnAddress ?RET CODE
        CFI CFA_DOVERLAY Used
        CFI CFA_IOVERLAY Used
        CFI CFA_SP SP+-3
        CFI CFA_PSP16 PSP16+0
        CFI CFA_XSP16 XSP16+0
        CFI `PSW.CY` SameValue
        CFI `B.BR0` SameValue
        CFI `B.BR1` SameValue
        CFI `B.BR2` SameValue
        CFI `B.BR3` SameValue
        CFI `B.BR4` SameValue
        CFI `B.BR5` SameValue
        CFI `B.BR6` SameValue
        CFI `B.BR7` SameValue
        CFI `VB.BR8` SameValue
        CFI `VB.BR9` SameValue
        CFI `VB.BR10` SameValue
        CFI `VB.BR11` SameValue
        CFI `VB.BR12` SameValue
        CFI `VB.BR13` SameValue
        CFI `VB.BR14` SameValue
        CFI `VB.BR15` SameValue
        CFI VB SameValue
        CFI B Undefined
        CFI A Undefined
        CFI PSW SameValue
        CFI DPL0 SameValue
        CFI DPH0 SameValue
        CFI R0 Undefined
        CFI R1 Undefined
        CFI R2 Undefined
        CFI R3 Undefined
        CFI R4 Undefined
        CFI R5 Undefined
        CFI R6 SameValue
        CFI R7 SameValue
        CFI V0 SameValue
        CFI V1 SameValue
        CFI V2 SameValue
        CFI V3 SameValue
        CFI V4 SameValue
        CFI V5 SameValue
        CFI V6 SameValue
        CFI V7 SameValue
        CFI V8 SameValue
        CFI V9 SameValue
        CFI V10 SameValue
        CFI V11 SameValue
        CFI V12 SameValue
        CFI V13 SameValue
        CFI V14 SameValue
        CFI V15 SameValue
        CFI PSPH Undefined
        CFI PSPL Undefined
        CFI XSPH Undefined
        CFI XSPL Undefined
        CFI ?RET Concat
        CFI ?BRET_EXT Frame(CFA_SP, 3)
        CFI ?RET_HIGH Frame(CFA_SP, 2)
        CFI ?RET_LOW Frame(CFA_SP, 1)
        CFI EndCommon cfiCommon0
        
        
        CFI Common cfiCommon1 Using cfiNames0
        CFI CodeAlign 1
        CFI DataAlign -1
        CFI ReturnAddress ?RET CODE
        CFI CFA_DOVERLAY Used
        CFI CFA_IOVERLAY Used
        CFI CFA_SP SP+-2
        CFI CFA_PSP16 PSP16+0
        CFI CFA_XSP16 XSP16+0
        CFI `PSW.CY` SameValue
        CFI `B.BR0` SameValue
        CFI `B.BR1` SameValue
        CFI `B.BR2` SameValue
        CFI `B.BR3` SameValue
        CFI `B.BR4` SameValue
        CFI `B.BR5` SameValue
        CFI `B.BR6` SameValue
        CFI `B.BR7` SameValue
        CFI `VB.BR8` SameValue
        CFI `VB.BR9` SameValue
        CFI `VB.BR10` SameValue
        CFI `VB.BR11` SameValue
        CFI `VB.BR12` SameValue
        CFI `VB.BR13` SameValue
        CFI `VB.BR14` SameValue
        CFI `VB.BR15` SameValue
        CFI VB SameValue
        CFI B SameValue
        CFI A SameValue
        CFI PSW SameValue
        CFI DPL0 SameValue
        CFI DPH0 SameValue
        CFI R0 SameValue
        CFI R1 SameValue
        CFI R2 SameValue
        CFI R3 SameValue
        CFI R4 SameValue
        CFI R5 SameValue
        CFI R6 SameValue
        CFI R7 SameValue
        CFI V0 SameValue
        CFI V1 SameValue
        CFI V2 SameValue
        CFI V3 SameValue
        CFI V4 SameValue
        CFI V5 SameValue
        CFI V6 SameValue
        CFI V7 SameValue
        CFI V8 SameValue
        CFI V9 SameValue
        CFI V10 SameValue
        CFI V11 SameValue
        CFI V12 SameValue
        CFI V13 SameValue
        CFI V14 SameValue
        CFI V15 SameValue
        CFI PSPH Undefined
        CFI PSPL Undefined
        CFI XSPH Undefined
        CFI XSPL Undefined
        CFI ?RET Concat
        CFI ?BRET_EXT SameValue
        CFI ?RET_HIGH Frame(CFA_SP, 2)
        CFI ?RET_LOW Frame(CFA_SP, 1)
        CFI EndCommon cfiCommon1
        
osal_pwrmgr_task_state SYMBOL "osal_pwrmgr_task_state"
MT_UartInit         SYMBOL "MT_UartInit"
MT_UartRegisterTaskID SYMBOL "MT_UartRegisterTaskID"
HalUARTWrite        SYMBOL "HalUARTWrite"
afRegister          SYMBOL "afRegister"
RegisterForKeys     SYMBOL "RegisterForKeys"
osal_memcpy         SYMBOL "osal_memcpy"
aps_AddGroup        SYMBOL "aps_AddGroup"
HalLcdWriteString   SYMBOL "HalLcdWriteString"
osal_msg_receive    SYMBOL "osal_msg_receive"
osal_start_timerEx  SYMBOL "osal_start_timerEx"
osal_msg_deallocate SYMBOL "osal_msg_deallocate"
osal_rand           SYMBOL "osal_rand"
aps_FindGroup       SYMBOL "aps_FindGroup"
aps_RemoveGroup     SYMBOL "aps_RemoveGroup"
HalLedBlink         SYMBOL "HalLedBlink"
AF_DataRequest      SYMBOL "AF_DataRequest"
??AF_DataRequest?relay SYMBOL "?relay", AF_DataRequest
??HalLcdWriteString?relay SYMBOL "?relay", HalLcdWriteString
??HalLedBlink?relay SYMBOL "?relay", HalLedBlink
??HalUARTWrite?relay SYMBOL "?relay", HalUARTWrite
??MT_UartInit?relay SYMBOL "?relay", MT_UartInit
??MT_UartRegisterTaskID?relay SYMBOL "?relay", MT_UartRegisterTaskID
??RegisterForKeys?relay SYMBOL "?relay", RegisterForKeys
??afRegister?relay  SYMBOL "?relay", afRegister
??aps_AddGroup?relay SYMBOL "?relay", aps_AddGroup
??aps_FindGroup?relay SYMBOL "?relay", aps_FindGroup
??aps_RemoveGroup?relay SYMBOL "?relay", aps_RemoveGroup
??osal_memcpy?relay SYMBOL "?relay", osal_memcpy
??osal_msg_deallocate?relay SYMBOL "?relay", osal_msg_deallocate
??osal_msg_receive?relay SYMBOL "?relay", osal_msg_receive
??osal_pwrmgr_task_state?relay SYMBOL "?relay", osal_pwrmgr_task_state
??osal_rand?relay   SYMBOL "?relay", osal_rand
??osal_start_timerEx?relay SYMBOL "?relay", osal_start_timerEx
SampleApp_HandleKeys SYMBOL "SampleApp_HandleKeys"
??SampleApp_HandleKeys?relay SYMBOL "?relay", SampleApp_HandleKeys
SampleApp_Init      SYMBOL "SampleApp_Init"
??SampleApp_Init?relay SYMBOL "?relay", SampleApp_Init
SampleApp_MessageMSGCB SYMBOL "SampleApp_MessageMSGCB"
??SampleApp_MessageMSGCB?relay SYMBOL "?relay", SampleApp_MessageMSGCB
SampleApp_ProcessEvent SYMBOL "SampleApp_ProcessEvent"
??SampleApp_ProcessEvent?relay SYMBOL "?relay", SampleApp_ProcessEvent
SampleApp_SendFlashMessage SYMBOL "SampleApp_SendFlashMessage"
??SampleApp_SendFlashMessage?relay SYMBOL "?relay", SampleApp_SendFlashMessage
SampleApp_SendPeriodicMessage SYMBOL "SampleApp_SendPeriodicMessage"
??SampleApp_SendPeriodicMessage?relay SYMBOL "?relay", SampleApp_SendPeriodicMessage

        EXTERN osal_pwrmgr_task_state
        FUNCTION osal_pwrmgr_task_state,0202H
        ARGFRAME ISTACK, 0, STACK
        ARGFRAME PSTACK, 0, STACK
        ARGFRAME XSTACK, 11, STACK
        ARGFRAME IOVERLAY, 0, STATIC
        ARGFRAME DOVERLAY, 0, STATIC
        EXTERN MT_UartInit
        FUNCTION MT_UartInit,0202H
        ARGFRAME ISTACK, 0, STACK
        ARGFRAME PSTACK, 0, STACK
        ARGFRAME XSTACK, 11, STACK
        ARGFRAME IOVERLAY, 0, STATIC
        ARGFRAME DOVERLAY, 0, STATIC
        EXTERN MT_UartRegisterTaskID
        FUNCTION MT_UartRegisterTaskID,0202H
        ARGFRAME ISTACK, 0, STACK
        ARGFRAME PSTACK, 0, STACK
        ARGFRAME XSTACK, 11, STACK
        ARGFRAME IOVERLAY, 0, STATIC
        ARGFRAME DOVERLAY, 0, STATIC
        EXTERN HalUARTWrite
        FUNCTION HalUARTWrite,0202H
        ARGFRAME ISTACK, 2, STACK
        ARGFRAME PSTACK, 0, STACK
        ARGFRAME XSTACK, 12, STACK
        ARGFRAME IOVERLAY, 0, STATIC
        ARGFRAME DOVERLAY, 0, STATIC
        EXTERN afRegister
        FUNCTION afRegister,0202H
        ARGFRAME ISTACK, 0, STACK
        ARGFRAME PSTACK, 0, STACK
        ARGFRAME XSTACK, 11, STACK
        ARGFRAME IOVERLAY, 0, STATIC
        ARGFRAME DOVERLAY, 0, STATIC
        EXTERN RegisterForKeys
        FUNCTION RegisterForKeys,0202H
        ARGFRAME ISTACK, 0, STACK
        ARGFRAME PSTACK, 0, STACK
        ARGFRAME XSTACK, 11, STACK
        ARGFRAME IOVERLAY, 0, STATIC
        ARGFRAME DOVERLAY, 0, STATIC
        EXTERN osal_memcpy
        FUNCTION osal_memcpy,0202H
        ARGFRAME ISTACK, 0, STACK
        ARGFRAME PSTACK, 0, STACK
        ARGFRAME XSTACK, 14, STACK
        ARGFRAME IOVERLAY, 0, STATIC
        ARGFRAME DOVERLAY, 0, STATIC
        EXTERN aps_AddGroup
        FUNCTION aps_AddGroup,0202H
        ARGFRAME ISTACK, 0, STACK
        ARGFRAME PSTACK, 0, STACK
        ARGFRAME XSTACK, 11, STACK
        ARGFRAME IOVERLAY, 0, STATIC
        ARGFRAME DOVERLAY, 0, STATIC
        EXTERN HalLcdWriteString
        FUNCTION HalLcdWriteString,0202H
        ARGFRAME ISTACK, 0, STACK
        ARGFRAME PSTACK, 0, STACK
        ARGFRAME XSTACK, 11, STACK
        ARGFRAME IOVERLAY, 0, STATIC
        ARGFRAME DOVERLAY, 0, STATIC
        EXTERN osal_msg_receive
        FUNCTION osal_msg_receive,0202H
        ARGFRAME ISTACK, 0, STACK
        ARGFRAME PSTACK, 0, STACK
        ARGFRAME XSTACK, 12, STACK
        ARGFRAME IOVERLAY, 0, STATIC
        ARGFRAME DOVERLAY, 0, STATIC
        EXTERN osal_start_timerEx
        FUNCTION osal_start_timerEx,0202H
        ARGFRAME ISTACK, 0, STACK
        ARGFRAME PSTACK, 0, STACK
        ARGFRAME XSTACK, 12, STACK
        ARGFRAME IOVERLAY, 0, STATIC
        ARGFRAME DOVERLAY, 0, STATIC
        EXTERN osal_msg_deallocate
        FUNCTION osal_msg_deallocate,0202H
        ARGFRAME ISTACK, 0, STACK
        ARGFRAME PSTACK, 0, STACK
        ARGFRAME XSTACK, 12, STACK
        ARGFRAME IOVERLAY, 0, STATIC
        ARGFRAME DOVERLAY, 0, STATIC
        EXTERN osal_rand
        FUNCTION osal_rand,0202H
        ARGFRAME ISTACK, 0, STACK
        ARGFRAME PSTACK, 0, STACK
        ARGFRAME XSTACK, 12, STACK
        ARGFRAME IOVERLAY, 0, STATIC
        ARGFRAME DOVERLAY, 0, STATIC
        EXTERN aps_FindGroup
        FUNCTION aps_FindGroup,0202H
        ARGFRAME ISTACK, 0, STACK
        ARGFRAME PSTACK, 0, STACK
        ARGFRAME XSTACK, 10, STACK
        ARGFRAME IOVERLAY, 0, STATIC
        ARGFRAME DOVERLAY, 0, STATIC
        EXTERN aps_RemoveGroup
        FUNCTION aps_RemoveGroup,0202H
        ARGFRAME ISTACK, 0, STACK
        ARGFRAME PSTACK, 0, STACK
        ARGFRAME XSTACK, 10, STACK
        ARGFRAME IOVERLAY, 0, STATIC
        ARGFRAME DOVERLAY, 0, STATIC
        EXTERN HalLedBlink
        FUNCTION HalLedBlink,0202H
        ARGFRAME ISTACK, 0, STACK
        ARGFRAME PSTACK, 0, STACK
        ARGFRAME XSTACK, 12, STACK
        ARGFRAME IOVERLAY, 0, STATIC
        ARGFRAME DOVERLAY, 0, STATIC
        EXTERN AF_DataRequest
        FUNCTION AF_DataRequest,0202H
        ARGFRAME ISTACK, 0, STACK
        ARGFRAME PSTACK, 0, STACK
        ARGFRAME XSTACK, 22, STACK
        ARGFRAME IOVERLAY, 0, STATIC
        ARGFRAME DOVERLAY, 0, STATIC
        EXTERN ??AF_DataRequest?relay
        FUNCTION ??AF_DataRequest?relay,00H
        EXTERN ??HalLcdWriteString?relay
        FUNCTION ??HalLcdWriteString?relay,00H
        EXTERN ??HalLedBlink?relay
        FUNCTION ??HalLedBlink?relay,00H
        EXTERN ??HalUARTWrite?relay
        FUNCTION ??HalUARTWrite?relay,00H
        EXTERN ??MT_UartInit?relay
        FUNCTION ??MT_UartInit?relay,00H
        EXTERN ??MT_UartRegisterTaskID?relay
        FUNCTION ??MT_UartRegisterTaskID?relay,00H
        EXTERN ??RegisterForKeys?relay
        FUNCTION ??RegisterForKeys?relay,00H
        EXTERN ??afRegister?relay
        FUNCTION ??afRegister?relay,00H
        EXTERN ??aps_AddGroup?relay
        FUNCTION ??aps_AddGroup?relay,00H
        EXTERN ??aps_FindGroup?relay
        FUNCTION ??aps_FindGroup?relay,00H
        EXTERN ??aps_RemoveGroup?relay
        FUNCTION ??aps_RemoveGroup?relay,00H
        EXTERN ??osal_memcpy?relay
        FUNCTION ??osal_memcpy?relay,00H
        EXTERN ??osal_msg_deallocate?relay
        FUNCTION ??osal_msg_deallocate?relay,00H
        EXTERN ??osal_msg_receive?relay
        FUNCTION ??osal_msg_receive?relay,00H
        EXTERN ??osal_pwrmgr_task_state?relay
        FUNCTION ??osal_pwrmgr_task_state?relay,00H
        EXTERN ??osal_rand?relay
        FUNCTION ??osal_rand?relay,00H
        EXTERN ??osal_start_timerEx?relay
        FUNCTION ??osal_start_timerEx?relay,00H

// H:\User\workplace\NISL_ZStack-CC2530-2.3.0-1.4.0\Projects\zstack\Samples\SampleApp--version 1.0_2015.4.24\Source\SampleApp.c
//    1 /**************************************************************************************************
//    2   Filename:       SampleApp.c
//    3   Revised:        $Date: 2009-03-18 15:56:27 -0700 (Wed, 18 Mar 2009) $
//    4   Revision:       $Revision: 19453 $
//    5 
//    6   Description:    Sample Application (no Profile).
//    7 
//    8 
//    9   Copyright 2007 Texas Instruments Incorporated. All rights reserved.
//   10 
//   11   IMPORTANT: Your use of this Software is limited to those specific rights
//   12   granted under the terms of a software license agreement between the user
//   13   who downloaded the software, his/her employer (which must be your employer)
//   14   and Texas Instruments Incorporated (the "License").  You may not use this
//   15   Software unless you agree to abide by the terms of the License. The License
//   16   limits your use, and you acknowledge, that the Software may not be modified,
//   17   copied or distributed unless embedded on a Texas Instruments microcontroller
//   18   or used solely and exclusively in conjunction with a Texas Instruments radio
//   19   frequency transceiver, which is integrated into your product.  Other than for
//   20   the foregoing purpose, you may not use, reproduce, copy, prepare derivative
//   21   works of, modify, distribute, perform, display or sell this Software and/or
//   22   its documentation for any purpose.
//   23 
//   24   YOU FURTHER ACKNOWLEDGE AND AGREE THAT THE SOFTWARE AND DOCUMENTATION ARE
//   25   PROVIDED AS IS?WITHOUT WARRANTY OF ANY KIND, EITHER EXPRESS OR IMPLIED,
//   26   INCLUDING WITHOUT LIMITATION, ANY WARRANTY OF MERCHANTABILITY, TITLE,
//   27   NON-INFRINGEMENT AND FITNESS FOR A PARTICULAR PURPOSE. IN NO EVENT SHALL
//   28   TEXAS INSTRUMENTS OR ITS LICENSORS BE LIABLE OR OBLIGATED UNDER CONTRACT,
//   29   NEGLIGENCE, STRICT LIABILITY, CONTRIBUTION, BREACH OF WARRANTY, OR OTHER
//   30   LEGAL EQUITABLE THEORY ANY DIRECT OR INDIRECT DAMAGES OR EXPENSES
//   31   INCLUDING BUT NOT LIMITED TO ANY INCIDENTAL, SPECIAL, INDIRECT, PUNITIVE
//   32   OR CONSEQUENTIAL DAMAGES, LOST PROFITS OR LOST DATA, COST OF PROCUREMENT
//   33   OF SUBSTITUTE GOODS, TECHNOLOGY, SERVICES, OR ANY CLAIMS BY THIRD PARTIES
//   34   (INCLUDING BUT NOT LIMITED TO ANY DEFENSE THEREOF), OR OTHER SIMILAR COSTS.
//   35 
//   36   Should you have any questions regarding your right to use this Software,
//   37   contact Texas Instruments Incorporated at www.TI.com.
//   38 **************************************************************************************************/
//   39 
//   40 /*********************************************************************
//   41   This application isn't intended to do anything useful, it is
//   42   intended to be a simple example of an application's structure.
//   43 
//   44   This application sends it's messages either as broadcast or
//   45   broadcast filtered group messages.  The other (more normal)
//   46   message addressing is unicast.  Most of the other sample
//   47   applications are written to support the unicast message model.
//   48 
//   49   Key control:
//   50     SW1:  Sends a flash command to all devices in Group 1.
//   51     SW2:  Adds/Removes (toggles) this device in and out
//   52           of Group 1.  This will enable and disable the
//   53           reception of the flash command.
//   54 *********************************************************************/
//   55 
//   56 /*********************************************************************
//   57  * INCLUDES
//   58  */
//   59 #include "OSAL.h"
//   60 #include "ZGlobals.h"
//   61 #include "AF.h"
//   62 #include "aps_groups.h"
//   63 #include "ZDApp.h"
//   64 
//   65 #include "SampleApp.h"
//   66 #include "SampleAppHw.h"
//   67 
//   68 #include "OnBoard.h"
//   69 
//   70 /* HAL */
//   71 #include "hal_lcd.h"
//   72 #include "hal_led.h"
//   73 #include "hal_key.h"
//   74 #include "MT_UART.h"
//   75 #include "MT_APP.h"
//   76 #include "MT.h"
//   77 
//   78 #include "OSAL_PwrMgr.h"//lxy添加
//   79 /*********************************************************************
//   80  * MACROS
//   81  */
//   82 
//   83 /*********************************************************************
//   84  * CONSTANTS
//   85  */
//   86 
//   87 /*********************************************************************
//   88  * TYPEDEFS
//   89  */
//   90 
//   91 /*********************************************************************
//   92  * GLOBAL VARIABLES
//   93  */
//   94 
//   95 // This list should be filled with Application specific Cluster IDs.

        RSEG XDATA_ROM_C:CONST:REORDER:NOROOT(0)
        DATA32
//   96 const cId_t SampleApp_ClusterList[SAMPLEAPP_MAX_CLUSTERS] =
SampleApp_ClusterList:
        DATA16
        DW 1
        DW 2
//   97 {
//   98   SAMPLEAPP_PERIODIC_CLUSTERID,
//   99   SAMPLEAPP_FLASH_CLUSTERID
//  100 };
//  101 

        RSEG XDATA_ROM_C:CONST:REORDER:NOROOT(0)
        DATA8
//  102 const SimpleDescriptionFormat_t SampleApp_SimpleDesc =
SampleApp_SimpleDesc:
        DB 20
        DATA16
        DW 3848
        DW 1
        DATA8
        DB 0
        DB 2
        DATA16
        DW SampleApp_ClusterList
        DATA8
        DB 2
        DATA16
        DW SampleApp_ClusterList
//  103 {
//  104   SAMPLEAPP_ENDPOINT,              //  int Endpoint;
//  105   SAMPLEAPP_PROFID,                //  uint16 AppProfId[2];
//  106   SAMPLEAPP_DEVICEID,              //  uint16 AppDeviceId[2];
//  107   SAMPLEAPP_DEVICE_VERSION,        //  int   AppDevVer:4;
//  108   SAMPLEAPP_FLAGS,                 //  int   AppFlags:4;
//  109   SAMPLEAPP_MAX_CLUSTERS,          //  uint8  AppNumInClusters;
//  110   (cId_t *)SampleApp_ClusterList,  //  uint8 *pAppInClusterList;
//  111   SAMPLEAPP_MAX_CLUSTERS,          //  uint8  AppNumInClusters;
//  112   (cId_t *)SampleApp_ClusterList   //  uint8 *pAppInClusterList;
//  113 };
//  114 
//  115 // This is the Endpoint/Interface description.  It is defined here, but
//  116 // filled-in in SampleApp_Init().  Another way to go would be to fill
//  117 // in the structure here and make it a "const" (in code space).  The
//  118 // way it's defined in this sample app it is define in RAM.

        RSEG XDATA_Z:XDATA:NOROOT(0)
        DATA8
//  119 endPointDesc_t SampleApp_epDesc;
SampleApp_epDesc:
        DS 6
        REQUIRE __INIT_XDATA_Z
//  120 
//  121 /*********************************************************************
//  122  * EXTERNAL VARIABLES
//  123  */
//  124 
//  125 /*********************************************************************
//  126  * EXTERNAL FUNCTIONS
//  127  */
//  128 
//  129 /*********************************************************************
//  130  * LOCAL VARIABLES
//  131  */

        RSEG XDATA_Z:XDATA:NOROOT(0)
        DATA8
//  132 uint8 SampleApp_TaskID;   // Task ID for internal task/event processing
SampleApp_TaskID:
        DS 1
        REQUIRE __INIT_XDATA_Z
//  133                           // This variable will be received when
//  134                           // SampleApp_Init() is called.
//  135 

        RSEG XDATA_Z:XDATA:NOROOT(0)
        DATA8
//  136 devStates_t SampleApp_NwkState;
SampleApp_NwkState:
        DS 1
        REQUIRE __INIT_XDATA_Z
//  137 

        RSEG XDATA_Z:XDATA:NOROOT(0)
        DATA8
//  138 uint8 SampleApp_TransID;  // This is the unique message ID (counter)
SampleApp_TransID:
        DS 1
        REQUIRE __INIT_XDATA_Z
//  139 

        RSEG XDATA_Z:XDATA:NOROOT(0)
        DATA8
//  140 afAddrType_t SampleApp_Periodic_DstAddr;
SampleApp_Periodic_DstAddr:
        DS 12
        REQUIRE __INIT_XDATA_Z

        RSEG XDATA_Z:XDATA:NOROOT(0)
        DATA8
//  141 afAddrType_t SampleApp_Flash_DstAddr;
SampleApp_Flash_DstAddr:
        DS 12
        REQUIRE __INIT_XDATA_Z
//  142 

        RSEG XDATA_Z:XDATA:NOROOT(0)
        DATA8
//  143 aps_Group_t SampleApp_Group;
SampleApp_Group:
        DS 18
        REQUIRE __INIT_XDATA_Z
//  144 

        RSEG XDATA_Z:XDATA:NOROOT(0)
        DATA8
//  145 uint8 SampleAppPeriodicCounter = 0;
SampleAppPeriodicCounter:
        DS 1
        REQUIRE __INIT_XDATA_Z

        RSEG XDATA_Z:XDATA:NOROOT(0)
        DATA8
//  146 uint8 SampleAppFlashCounter = 0;
SampleAppFlashCounter:
        DS 1
        REQUIRE __INIT_XDATA_Z
//  147 

        RSEG XDATA_Z:XDATA:NOROOT(0)
        DATA8
//  148 uint8 ZLC_Count = 0;          // Lichao Zhang define 
ZLC_Count:
        DS 1
        REQUIRE __INIT_XDATA_Z

        RSEG XDATA_Z:XDATA:NOROOT(0)
        DATA16
//  149 int flag = 0;
flag:
        DS 2
        REQUIRE __INIT_XDATA_Z

        RSEG XDATA_Z:XDATA:NOROOT(0)
        DATA8
//  150 uint8 re[11];
re:
        DS 11
        REQUIRE __INIT_XDATA_Z
//  151 /*********************************************************************
//  152  * LOCAL FUNCTIONS
//  153  */
//  154 void SampleApp_HandleKeys( uint8 shift, uint8 keys );
//  155 void SampleApp_MessageMSGCB( afIncomingMSGPacket_t *pckt );
//  156 void SampleApp_SendPeriodicMessage( void );
//  157 void SampleApp_SendFlashMessage( uint16 flashTime );
//  158 void SampleApp_SerialCMD(mtOSALSerialData_t *cmdMsg);
//  159 
//  160 /*********************************************************************
//  161  * NETWORK LAYER CALLBACKS
//  162  */
//  163 
//  164 /*********************************************************************
//  165  * PUBLIC FUNCTIONS
//  166  */
//  167 
//  168 /*********************************************************************
//  169  * @fn      SampleApp_Init
//  170  *
//  171  * @brief   Initialization function for the Generic App Task.
//  172  *          This is called during initialization and should contain
//  173  *          any application specific initialization (ie. hardware
//  174  *          initialization/setup, table initialization, power up
//  175  *          notificaiton ... ).
//  176  *
//  177  * @param   task_id - the ID assigned by OSAL.  This ID should be
//  178  *                    used to send messages and set timers.
//  179  *
//  180  * @return  none
//  181  */
//  182 extern uint8 osal_pwrmgr_task_state( uint8 task_id, uint8 state );//兰轩宇添加
//  183 extern uint8 HalTimerStart (uint8 timerId, uint32 timePerTick);
//  184 extern uint8 HalTimerStop (uint8 timerId);

        RSEG BANKED_CODE:CODE:NOROOT(0)
//  185 void SampleApp_Init( uint8 task_id )
SampleApp_Init:
        CFI Block cfiBlock0 Using cfiCommon0
        CFI Function SampleApp_Init
        CODE
//  186 { 
        FUNCALL SampleApp_Init, osal_pwrmgr_task_state
        LOCFRAME ISTACK, 0, STACK
        LOCFRAME PSTACK, 0, STACK
        LOCFRAME XSTACK, 11, STACK
        LOCFRAME IOVERLAY, 0, STATIC
        LOCFRAME DOVERLAY, 0, STATIC
        ARGFRAME ISTACK, 0, STACK
        ARGFRAME PSTACK, 0, STACK
        ARGFRAME XSTACK, 11, STACK
        ARGFRAME IOVERLAY, 0, STATIC
        ARGFRAME DOVERLAY, 0, STATIC
        FUNCALL SampleApp_Init, MT_UartInit
        LOCFRAME ISTACK, 0, STACK
        LOCFRAME PSTACK, 0, STACK
        LOCFRAME XSTACK, 11, STACK
        LOCFRAME IOVERLAY, 0, STATIC
        LOCFRAME DOVERLAY, 0, STATIC
        ARGFRAME ISTACK, 0, STACK
        ARGFRAME PSTACK, 0, STACK
        ARGFRAME XSTACK, 11, STACK
        ARGFRAME IOVERLAY, 0, STATIC
        ARGFRAME DOVERLAY, 0, STATIC
        FUNCALL SampleApp_Init, MT_UartRegisterTaskID
        LOCFRAME ISTACK, 0, STACK
        LOCFRAME PSTACK, 0, STACK
        LOCFRAME XSTACK, 11, STACK
        LOCFRAME IOVERLAY, 0, STATIC
        LOCFRAME DOVERLAY, 0, STATIC
        ARGFRAME ISTACK, 0, STACK
        ARGFRAME PSTACK, 0, STACK
        ARGFRAME XSTACK, 11, STACK
        ARGFRAME IOVERLAY, 0, STATIC
        ARGFRAME DOVERLAY, 0, STATIC
        FUNCALL SampleApp_Init, HalUARTWrite
        LOCFRAME ISTACK, 0, STACK
        LOCFRAME PSTACK, 0, STACK
        LOCFRAME XSTACK, 11, STACK
        LOCFRAME IOVERLAY, 0, STATIC
        LOCFRAME DOVERLAY, 0, STATIC
        ARGFRAME ISTACK, 0, STACK
        ARGFRAME PSTACK, 0, STACK
        ARGFRAME XSTACK, 11, STACK
        ARGFRAME IOVERLAY, 0, STATIC
        ARGFRAME DOVERLAY, 0, STATIC
        FUNCALL SampleApp_Init, afRegister
        LOCFRAME ISTACK, 0, STACK
        LOCFRAME PSTACK, 0, STACK
        LOCFRAME XSTACK, 11, STACK
        LOCFRAME IOVERLAY, 0, STATIC
        LOCFRAME DOVERLAY, 0, STATIC
        ARGFRAME ISTACK, 0, STACK
        ARGFRAME PSTACK, 0, STACK
        ARGFRAME XSTACK, 11, STACK
        ARGFRAME IOVERLAY, 0, STATIC
        ARGFRAME DOVERLAY, 0, STATIC
        FUNCALL SampleApp_Init, RegisterForKeys
        LOCFRAME ISTACK, 0, STACK
        LOCFRAME PSTACK, 0, STACK
        LOCFRAME XSTACK, 11, STACK
        LOCFRAME IOVERLAY, 0, STATIC
        LOCFRAME DOVERLAY, 0, STATIC
        ARGFRAME ISTACK, 0, STACK
        ARGFRAME PSTACK, 0, STACK
        ARGFRAME XSTACK, 11, STACK
        ARGFRAME IOVERLAY, 0, STATIC
        ARGFRAME DOVERLAY, 0, STATIC
        FUNCALL SampleApp_Init, osal_memcpy
        LOCFRAME ISTACK, 0, STACK
        LOCFRAME PSTACK, 0, STACK
        LOCFRAME XSTACK, 14, STACK
        LOCFRAME IOVERLAY, 0, STATIC
        LOCFRAME DOVERLAY, 0, STATIC
        ARGFRAME ISTACK, 0, STACK
        ARGFRAME PSTACK, 0, STACK
        ARGFRAME XSTACK, 14, STACK
        ARGFRAME IOVERLAY, 0, STATIC
        ARGFRAME DOVERLAY, 0, STATIC
        FUNCALL SampleApp_Init, aps_AddGroup
        LOCFRAME ISTACK, 0, STACK
        LOCFRAME PSTACK, 0, STACK
        LOCFRAME XSTACK, 11, STACK
        LOCFRAME IOVERLAY, 0, STATIC
        LOCFRAME DOVERLAY, 0, STATIC
        ARGFRAME ISTACK, 0, STACK
        ARGFRAME PSTACK, 0, STACK
        ARGFRAME XSTACK, 11, STACK
        ARGFRAME IOVERLAY, 0, STATIC
        ARGFRAME DOVERLAY, 0, STATIC
        FUNCALL SampleApp_Init, HalLcdWriteString
        LOCFRAME ISTACK, 0, STACK
        LOCFRAME PSTACK, 0, STACK
        LOCFRAME XSTACK, 11, STACK
        LOCFRAME IOVERLAY, 0, STATIC
        LOCFRAME DOVERLAY, 0, STATIC
        ARGFRAME ISTACK, 0, STACK
        ARGFRAME PSTACK, 0, STACK
        ARGFRAME XSTACK, 11, STACK
        ARGFRAME IOVERLAY, 0, STATIC
        ARGFRAME DOVERLAY, 0, STATIC
        MOV     A,#-0xb
        LCALL   ?BANKED_ENTER_XDATA
        CFI DPH0 load(1, XDATA, add(CFA_XSP16, literal(-1)))
        CFI DPL0 load(1, XDATA, add(CFA_XSP16, literal(-2)))
        CFI ?BRET_EXT load(1, XDATA, add(CFA_XSP16, literal(-3)))
        CFI ?RET_HIGH load(1, XDATA, add(CFA_XSP16, literal(-4)))
        CFI ?RET_LOW load(1, XDATA, add(CFA_XSP16, literal(-5)))
        CFI R7 load(1, XDATA, add(CFA_XSP16, literal(-6)))
        CFI V2 load(1, XDATA, add(CFA_XSP16, literal(-7)))
        CFI V1 load(1, XDATA, add(CFA_XSP16, literal(-8)))
        CFI V0 load(1, XDATA, add(CFA_XSP16, literal(-9)))
        CFI VB load(1, XDATA, add(CFA_XSP16, literal(-10)))
        CFI R6 load(1, XDATA, add(CFA_XSP16, literal(-11)))
        CFI CFA_SP SP+0
        CFI CFA_XSP16 add(XSP16, 11)
        ; Saved register size: 11
        ; Auto size: 0
        MOV     A,R1
        MOV     R6,A
//  187   SampleApp_TaskID = task_id;
        MOV     DPTR,#SampleApp_TaskID
        MOVX    @DPTR,A
//  188   SampleApp_NwkState = DEV_INIT;
        MOV     DPTR,#SampleApp_NwkState
        MOV     A,#0x1
        MOVX    @DPTR,A
//  189   SampleApp_TransID = 0;
        MOV     DPTR,#SampleApp_TransID
        CLR     A
        MOVX    @DPTR,A
//  190   
//  191   osal_pwrmgr_task_state(task_id,PWRMGR_CONSERVE);//lxy添加
        ; Setup parameters for call to function osal_pwrmgr_task_state
        MOV     R2,A
        LCALL   ??osal_pwrmgr_task_state?relay
//  192   
//  193   MT_UartInit();                  //串口初始化
        ; Setup parameters for call to function MT_UartInit
        LCALL   ??MT_UartInit?relay
//  194   MT_UartRegisterTaskID(task_id); //注册串口任务
        ; Setup parameters for call to function MT_UartRegisterTaskID
        MOV     A,R6
        MOV     R1,A
        LCALL   ??MT_UartRegisterTaskID?relay
//  195   HalUARTWrite(0,"UartInit OK\n", sizeof("UartInit OK\n"));//提示信息
        ; Setup parameters for call to function HalUARTWrite
        MOV     R4,#0xd
        MOV     R5,#0x0
        MOV     R2,#`?<Constant "UartInit OK\\n">` & 0xff
        MOV     R3,#(`?<Constant "UartInit OK\\n">` >> 8) & 0xff
        MOV     R1,#0x0
        LCALL   ??HalUARTWrite?relay
//  196   
//  197   // Device hardware initialization can be added here or in main() (Zmain.c).
//  198   // If the hardware is application specific - add it here.
//  199   // If the hardware is other parts of the device add it in main().
//  200 
//  201  #if defined ( BUILD_ALL_DEVICES )
//  202   // The "Demo" target is setup to have BUILD_ALL_DEVICES and HOLD_AUTO_START
//  203   // We are looking at a jumper (defined in SampleAppHw.c) to be jumpered
//  204   // together - if they are - we will start up a coordinator. Otherwise,
//  205   // the device will start as a router.
//  206   if ( readCoordinatorJumper() )
//  207     zgDeviceLogicalType = ZG_DEVICETYPE_COORDINATOR;
//  208   else
//  209     zgDeviceLogicalType = ZG_DEVICETYPE_ROUTER;
//  210 #endif // BUILD_ALL_DEVICES
//  211 
//  212 #if defined ( HOLD_AUTO_START )
//  213   // HOLD_AUTO_START is a compile option that will surpress ZDApp
//  214   //  from starting the device and wait for the application to
//  215   //  start the device.
//  216   ZDOInitDevice(0);
//  217 #endif
//  218 
//  219   // Setup for the periodic message's destination address
//  220   // Broadcast to everyone
//  221   SampleApp_Periodic_DstAddr.addrMode = (afAddrMode_t)AddrBroadcast;
        MOV     DPTR,#SampleApp_Periodic_DstAddr + 8
        MOV     A,#0xf
        MOVX    @DPTR,A
//  222   SampleApp_Periodic_DstAddr.endPoint = SAMPLEAPP_ENDPOINT;
        INC     DPTR
        MOV     A,#0x14
        MOVX    @DPTR,A
//  223   SampleApp_Periodic_DstAddr.addr.shortAddr = 0xFFFF;
        MOV     DPTR,#SampleApp_Periodic_DstAddr
        MOV     A,#-0x1
        MOVX    @DPTR,A
        INC     DPTR
        MOVX    @DPTR,A
//  224 
//  225   // Setup for the flash command's destination address - Group 1
//  226   SampleApp_Flash_DstAddr.addrMode = (afAddrMode_t)afAddrGroup;
        MOV     DPTR,#SampleApp_Flash_DstAddr + 8
        MOV     A,#0x1
        MOVX    @DPTR,A
//  227   SampleApp_Flash_DstAddr.endPoint = SAMPLEAPP_ENDPOINT;
        INC     DPTR
        MOV     A,#0x14
        MOVX    @DPTR,A
//  228   SampleApp_Flash_DstAddr.addr.shortAddr = SAMPLEAPP_FLASH_GROUP;
        MOV     DPTR,#SampleApp_Flash_DstAddr
        MOV     A,#0x1
        MOVX    @DPTR,A
        INC     DPTR
        CLR     A
        MOVX    @DPTR,A
//  229 
//  230   // Fill out the endpoint description.
//  231   SampleApp_epDesc.endPoint = SAMPLEAPP_ENDPOINT;
        MOV     DPTR,#SampleApp_epDesc
        MOV     A,#0x14
        MOVX    @DPTR,A
//  232   SampleApp_epDesc.task_id = &SampleApp_TaskID;
        INC     DPTR
        MOV     A,#SampleApp_TaskID & 0xff
        MOVX    @DPTR,A
        INC     DPTR
        MOV     A,#(SampleApp_TaskID >> 8) & 0xff
        MOVX    @DPTR,A
//  233   SampleApp_epDesc.simpleDesc
//  234             = (SimpleDescriptionFormat_t *)&SampleApp_SimpleDesc;
        INC     DPTR
        MOV     A,#SampleApp_SimpleDesc & 0xff
        MOVX    @DPTR,A
        INC     DPTR
        MOV     A,#(SampleApp_SimpleDesc >> 8) & 0xff
        MOVX    @DPTR,A
//  235   SampleApp_epDesc.latencyReq = noLatencyReqs;
        INC     DPTR
        CLR     A
        MOVX    @DPTR,A
//  236 
//  237   // Register the endpoint description with the AF
//  238   afRegister( &SampleApp_epDesc );
        ; Setup parameters for call to function afRegister
        MOV     R2,#SampleApp_epDesc & 0xff
        MOV     R3,#(SampleApp_epDesc >> 8) & 0xff
        LCALL   ??afRegister?relay
//  239 
//  240   // Register for all key events - This app will handle all key events
//  241   RegisterForKeys( SampleApp_TaskID );
        ; Setup parameters for call to function RegisterForKeys
        MOV     DPTR,#SampleApp_TaskID
        MOVX    A,@DPTR
        MOV     R1,A
        LCALL   ??RegisterForKeys?relay
//  242 
//  243   // By default, all devices start out in Group 1
//  244   SampleApp_Group.ID = 0x0001;
        MOV     DPTR,#SampleApp_Group
        MOV     A,#0x1
        MOVX    @DPTR,A
        INC     DPTR
        CLR     A
        MOVX    @DPTR,A
//  245   osal_memcpy( SampleApp_Group.name, "Group 1", 7 );
        ; Setup parameters for call to function osal_memcpy
        MOV     ?V0 + 0,#`?<Constant "Group 1">` & 0xff
        MOV     ?V0 + 1,#(`?<Constant "Group 1">` >> 8) & 0xff
        MOV     ?V0 + 2,A
        MOV     R0,#?V0 + 0
        LCALL   ?PUSH_XSTACK_I_THREE
        CFI CFA_XSP16 add(XSP16, 14)
        MOV     R4,#0x7
        MOV     R5,#0x0
        MOV     R2,#(SampleApp_Group + 2) & 0xff
        MOV     R3,#((SampleApp_Group + 2) >> 8) & 0xff
        LCALL   ??osal_memcpy?relay
        MOV     A,#0x3
        LCALL   ?DEALLOC_XSTACK8
        CFI CFA_XSP16 add(XSP16, 11)
//  246   aps_AddGroup( SAMPLEAPP_ENDPOINT, &SampleApp_Group );
        ; Setup parameters for call to function aps_AddGroup
        MOV     R2,#SampleApp_Group & 0xff
        MOV     R3,#(SampleApp_Group >> 8) & 0xff
        MOV     R1,#0x14
        LCALL   ??aps_AddGroup?relay
//  247 
//  248 #if defined ( LCD_SUPPORTED )
//  249   HalLcdWriteString( "SampleApp", HAL_LCD_LINE_1 );
        ; Setup parameters for call to function HalLcdWriteString
        MOV     R1,#0x1
        MOV     R2,#`?<Constant "SampleApp">` & 0xff
        MOV     R3,#(`?<Constant "SampleApp">` >> 8) & 0xff
        LCALL   ??HalLcdWriteString?relay
//  250 #endif
//  251 }
        MOV     R7,#0x3
        LJMP    ?BANKED_LEAVE_XDATA
        CFI EndBlock cfiBlock0
//  252 
//  253 /*********************************************************************
//  254  * @fn      SampleApp_ProcessEvent
//  255  *
//  256  * @brief   Generic Application Task event processor.  This function
//  257  *          is called to process all events for the task.  Events
//  258  *          include timers, messages and any other user defined events.
//  259  *
//  260  * @param   task_id  - The OSAL assigned task ID.
//  261  * @param   events - events to process.  This is a bit map and can
//  262  *                   contain more than one event.
//  263  *
//  264  * @return  none
//  265  */

        RSEG BANKED_CODE:CODE:NOROOT(0)
//  266 uint16 SampleApp_ProcessEvent( uint8 task_id, uint16 events )
SampleApp_ProcessEvent:
        CFI Block cfiBlock1 Using cfiCommon0
        CFI Function SampleApp_ProcessEvent
        CODE
//  267 {
        FUNCALL SampleApp_ProcessEvent, osal_msg_receive
        LOCFRAME ISTACK, 0, STACK
        LOCFRAME PSTACK, 0, STACK
        LOCFRAME XSTACK, 12, STACK
        LOCFRAME IOVERLAY, 0, STATIC
        LOCFRAME DOVERLAY, 0, STATIC
        ARGFRAME ISTACK, 0, STACK
        ARGFRAME PSTACK, 0, STACK
        ARGFRAME XSTACK, 12, STACK
        ARGFRAME IOVERLAY, 0, STATIC
        ARGFRAME DOVERLAY, 0, STATIC
        FUNCALL SampleApp_ProcessEvent, osal_start_timerEx
        LOCFRAME ISTACK, 0, STACK
        LOCFRAME PSTACK, 0, STACK
        LOCFRAME XSTACK, 12, STACK
        LOCFRAME IOVERLAY, 0, STATIC
        LOCFRAME DOVERLAY, 0, STATIC
        ARGFRAME ISTACK, 0, STACK
        ARGFRAME PSTACK, 0, STACK
        ARGFRAME XSTACK, 12, STACK
        ARGFRAME IOVERLAY, 0, STATIC
        ARGFRAME DOVERLAY, 0, STATIC
        FUNCALL SampleApp_ProcessEvent, osal_msg_deallocate
        LOCFRAME ISTACK, 0, STACK
        LOCFRAME PSTACK, 0, STACK
        LOCFRAME XSTACK, 12, STACK
        LOCFRAME IOVERLAY, 0, STATIC
        LOCFRAME DOVERLAY, 0, STATIC
        ARGFRAME ISTACK, 0, STACK
        ARGFRAME PSTACK, 0, STACK
        ARGFRAME XSTACK, 12, STACK
        ARGFRAME IOVERLAY, 0, STATIC
        ARGFRAME DOVERLAY, 0, STATIC
        FUNCALL SampleApp_ProcessEvent, osal_msg_receive
        LOCFRAME ISTACK, 0, STACK
        LOCFRAME PSTACK, 0, STACK
        LOCFRAME XSTACK, 12, STACK
        LOCFRAME IOVERLAY, 0, STATIC
        LOCFRAME DOVERLAY, 0, STATIC
        ARGFRAME ISTACK, 0, STACK
        ARGFRAME PSTACK, 0, STACK
        ARGFRAME XSTACK, 12, STACK
        ARGFRAME IOVERLAY, 0, STATIC
        ARGFRAME DOVERLAY, 0, STATIC
        FUNCALL SampleApp_ProcessEvent, SampleApp_HandleKeys
        LOCFRAME ISTACK, 0, STACK
        LOCFRAME PSTACK, 0, STACK
        LOCFRAME XSTACK, 12, STACK
        LOCFRAME IOVERLAY, 0, STATIC
        LOCFRAME DOVERLAY, 0, STATIC
        ARGFRAME ISTACK, 0, STACK
        ARGFRAME PSTACK, 0, STACK
        ARGFRAME XSTACK, 12, STACK
        ARGFRAME IOVERLAY, 0, STATIC
        ARGFRAME DOVERLAY, 0, STATIC
        FUNCALL SampleApp_ProcessEvent, SampleApp_MessageMSGCB
        LOCFRAME ISTACK, 0, STACK
        LOCFRAME PSTACK, 0, STACK
        LOCFRAME XSTACK, 12, STACK
        LOCFRAME IOVERLAY, 0, STATIC
        LOCFRAME DOVERLAY, 0, STATIC
        ARGFRAME ISTACK, 0, STACK
        ARGFRAME PSTACK, 0, STACK
        ARGFRAME XSTACK, 12, STACK
        ARGFRAME IOVERLAY, 0, STATIC
        ARGFRAME DOVERLAY, 0, STATIC
        FUNCALL SampleApp_ProcessEvent, SampleApp_SendPeriodicMessage
        LOCFRAME ISTACK, 0, STACK
        LOCFRAME PSTACK, 0, STACK
        LOCFRAME XSTACK, 12, STACK
        LOCFRAME IOVERLAY, 0, STATIC
        LOCFRAME DOVERLAY, 0, STATIC
        ARGFRAME ISTACK, 0, STACK
        ARGFRAME PSTACK, 0, STACK
        ARGFRAME XSTACK, 12, STACK
        ARGFRAME IOVERLAY, 0, STATIC
        ARGFRAME DOVERLAY, 0, STATIC
        FUNCALL SampleApp_ProcessEvent, osal_rand
        LOCFRAME ISTACK, 0, STACK
        LOCFRAME PSTACK, 0, STACK
        LOCFRAME XSTACK, 12, STACK
        LOCFRAME IOVERLAY, 0, STATIC
        LOCFRAME DOVERLAY, 0, STATIC
        ARGFRAME ISTACK, 0, STACK
        ARGFRAME PSTACK, 0, STACK
        ARGFRAME XSTACK, 12, STACK
        ARGFRAME IOVERLAY, 0, STATIC
        ARGFRAME DOVERLAY, 0, STATIC
        FUNCALL SampleApp_ProcessEvent, osal_start_timerEx
        LOCFRAME ISTACK, 0, STACK
        LOCFRAME PSTACK, 0, STACK
        LOCFRAME XSTACK, 12, STACK
        LOCFRAME IOVERLAY, 0, STATIC
        LOCFRAME DOVERLAY, 0, STATIC
        ARGFRAME ISTACK, 0, STACK
        ARGFRAME PSTACK, 0, STACK
        ARGFRAME XSTACK, 12, STACK
        ARGFRAME IOVERLAY, 0, STATIC
        ARGFRAME DOVERLAY, 0, STATIC
        FUNCALL SampleApp_ProcessEvent, osal_rand
        LOCFRAME ISTACK, 0, STACK
        LOCFRAME PSTACK, 0, STACK
        LOCFRAME XSTACK, 12, STACK
        LOCFRAME IOVERLAY, 0, STATIC
        LOCFRAME DOVERLAY, 0, STATIC
        ARGFRAME ISTACK, 0, STACK
        ARGFRAME PSTACK, 0, STACK
        ARGFRAME XSTACK, 12, STACK
        ARGFRAME IOVERLAY, 0, STATIC
        ARGFRAME DOVERLAY, 0, STATIC
        FUNCALL SampleApp_ProcessEvent, osal_start_timerEx
        LOCFRAME ISTACK, 0, STACK
        LOCFRAME PSTACK, 0, STACK
        LOCFRAME XSTACK, 12, STACK
        LOCFRAME IOVERLAY, 0, STATIC
        LOCFRAME DOVERLAY, 0, STATIC
        ARGFRAME ISTACK, 0, STACK
        ARGFRAME PSTACK, 0, STACK
        ARGFRAME XSTACK, 12, STACK
        ARGFRAME IOVERLAY, 0, STATIC
        ARGFRAME DOVERLAY, 0, STATIC
        FUNCALL SampleApp_ProcessEvent, osal_start_timerEx
        LOCFRAME ISTACK, 0, STACK
        LOCFRAME PSTACK, 0, STACK
        LOCFRAME XSTACK, 12, STACK
        LOCFRAME IOVERLAY, 0, STATIC
        LOCFRAME DOVERLAY, 0, STATIC
        ARGFRAME ISTACK, 0, STACK
        ARGFRAME PSTACK, 0, STACK
        ARGFRAME XSTACK, 12, STACK
        ARGFRAME IOVERLAY, 0, STATIC
        ARGFRAME DOVERLAY, 0, STATIC
        MOV     A,#-0xc
        LCALL   ?BANKED_ENTER_XDATA
        CFI DPH0 load(1, XDATA, add(CFA_XSP16, literal(-1)))
        CFI DPL0 load(1, XDATA, add(CFA_XSP16, literal(-2)))
        CFI ?BRET_EXT load(1, XDATA, add(CFA_XSP16, literal(-3)))
        CFI ?RET_HIGH load(1, XDATA, add(CFA_XSP16, literal(-4)))
        CFI ?RET_LOW load(1, XDATA, add(CFA_XSP16, literal(-5)))
        CFI R7 load(1, XDATA, add(CFA_XSP16, literal(-6)))
        CFI V3 load(1, XDATA, add(CFA_XSP16, literal(-7)))
        CFI V2 load(1, XDATA, add(CFA_XSP16, literal(-8)))
        CFI V1 load(1, XDATA, add(CFA_XSP16, literal(-9)))
        CFI V0 load(1, XDATA, add(CFA_XSP16, literal(-10)))
        CFI VB load(1, XDATA, add(CFA_XSP16, literal(-11)))
        CFI R6 load(1, XDATA, add(CFA_XSP16, literal(-12)))
        CFI CFA_SP SP+0
        CFI CFA_XSP16 add(XSP16, 12)
        ; Saved register size: 12
        ; Auto size: 0
        MOV     A,R2
        MOV     R6,A
        MOV     A,R3
        MOV     R7,A
//  268   afIncomingMSGPacket_t *MSGpkt;
//  269   
//  270   //Defined by Lichao Zhang
//  271   uint8 timerIdNISL;
//  272   uint32 timePerTickNISL;
//  273    
//  274   (void)task_id;  // Intentionally unreferenced parameter
//  275   
//  276 
//  277   if ( events & SYS_EVENT_MSG )
        ANL     A,#0x80
        JZ      ??SampleApp_ProcessEvent_0
//  278   {
//  279     
//  280     MSGpkt = (afIncomingMSGPacket_t *)osal_msg_receive( SampleApp_TaskID );
        ; Setup parameters for call to function osal_msg_receive
        SJMP    ??SampleApp_ProcessEvent_1
//  281     //ZLC_Count++;     //Lichao Zhang define
//  282     while ( MSGpkt )
//  283     {
//  284       switch ( MSGpkt->hdr.event )
//  285       {        
//  286         // Received when a key is pressed
//  287         case KEY_CHANGE:
//  288           SampleApp_HandleKeys( ((keyChange_t *)MSGpkt)->state, ((keyChange_t *)MSGpkt)->keys );
//  289           break;
//  290 
//  291         // Received when a messages is received (OTA) for this endpoint
//  292         case AF_INCOMING_MSG_CMD:
//  293           SampleApp_MessageMSGCB( MSGpkt );
//  294           break;
//  295 
//  296         // Received whenever the device changes state in the network
//  297         case ZDO_STATE_CHANGE:
//  298           SampleApp_NwkState = (devStates_t)(MSGpkt->hdr.status);
??SampleApp_ProcessEvent_2:
        INC     DPTR
        MOVX    A,@DPTR
        MOV     DPTR,#SampleApp_NwkState
        MOVX    @DPTR,A
//  299           if ( //(SampleApp_NwkState == DEV_ZB_COORD) ||
//  300                  (SampleApp_NwkState == DEV_ROUTER)
//  301               || (SampleApp_NwkState == DEV_END_DEVICE) )
        XRL     A,#0x7
        JZ      ??SampleApp_ProcessEvent_3
        MOVX    A,@DPTR
        XRL     A,#0x6
        JNZ     ??CrossCallReturnLabel_2
//  302           {
//  303             // Start sending the periodic message in a regular interval.
//  304             osal_start_timerEx( SampleApp_TaskID,
//  305                               SAMPLEAPP_SEND_PERIODIC_MSG_EVT,
//  306                               SAMPLEAPP_SEND_PERIODIC_MSG_TIMEOUT );
??SampleApp_ProcessEvent_3:
        ; Setup parameters for call to function osal_start_timerEx
        MOV     R4,#-0x18
        MOV     R5,#0x3
        MOV     R2,#0x1
        MOV     R3,#0x0
        LCALL   ?Subroutine3 & 0xFFFF
//  307           }
//  308           else
//  309           {
//  310             // Device is no longer in the network
//  311           }
//  312           break;
//  313 
//  314         default:
//  315           break;
//  316       }
//  317 
//  318       // Release the memory
//  319       osal_msg_deallocate( (uint8 *)MSGpkt );
??CrossCallReturnLabel_2:
        ; Setup parameters for call to function osal_msg_deallocate
        MOV     R2,?V0 + 0
        MOV     R3,?V0 + 1
        LCALL   ??osal_msg_deallocate?relay
//  320 
//  321       // Next - if one is available
//  322       MSGpkt = (afIncomingMSGPacket_t *)osal_msg_receive( SampleApp_TaskID );
        ; Setup parameters for call to function osal_msg_receive
??SampleApp_ProcessEvent_1:
        MOV     DPTR,#SampleApp_TaskID
        MOVX    A,@DPTR
        MOV     R1,A
        LCALL   ??osal_msg_receive?relay
        MOV     ?V0 + 0,R2
        MOV     ?V0 + 1,R3
        MOV     A,?V0 + 0
        ORL     A,?V0 + 1
        JZ      ??SampleApp_ProcessEvent_4
        MOV     DPL,?V0 + 0
        MOV     DPH,?V0 + 1
        MOVX    A,@DPTR
        ADD     A,#-0x1a
        JZ      ??SampleApp_ProcessEvent_5
        ADD     A,#0x5a
        JZ      ??SampleApp_ProcessEvent_6
        ADD     A,#-0x11
        JZ      ??SampleApp_ProcessEvent_2
        SJMP    ??CrossCallReturnLabel_2
??SampleApp_ProcessEvent_6:
        ; Setup parameters for call to function SampleApp_HandleKeys
        INC     DPTR
        INC     DPTR
        INC     DPTR
        MOVX    A,@DPTR
        MOV     R2,A
        MOV     DPL,?V0 + 0
        MOV     DPH,?V0 + 1
        INC     DPTR
        INC     DPTR
        MOVX    A,@DPTR
        MOV     R1,A
        LCALL   ??SampleApp_HandleKeys?relay
        SJMP    ??CrossCallReturnLabel_2
??SampleApp_ProcessEvent_5:
        ; Setup parameters for call to function SampleApp_MessageMSGCB
        MOV     R2,?V0 + 0
        MOV     R3,?V0 + 1
        LCALL   ??SampleApp_MessageMSGCB?relay
        SJMP    ??CrossCallReturnLabel_2
//  323     }
//  324 
//  325     // return unprocessed events
//  326     return (events ^ SYS_EVENT_MSG);
??SampleApp_ProcessEvent_4:
        MOV     A,R6
        MOV     R2,A
        MOV     A,R7
        XRL     A,#0x80
??SampleApp_ProcessEvent_7:
        MOV     R3,A
        SJMP    ??SampleApp_ProcessEvent_8
//  327   }
//  328 
//  329   // Send a message out - This event is generated by a timer
//  330   //  (setup in SampleApp_Init()).
//  331   if ( events & SAMPLEAPP_SEND_PERIODIC_MSG_EVT )
??SampleApp_ProcessEvent_0:
        MOV     A,R6
        MOV     C,0xE0 /* A   */.0
        JNC     ??SampleApp_ProcessEvent_9
//  332   {
//  333     // Send the periodic message
//  334     SampleApp_SendPeriodicMessage();
        ; Setup parameters for call to function SampleApp_SendPeriodicMessage
        LCALL   ??SampleApp_SendPeriodicMessage?relay
//  335 
//  336     // Setup to send message again in normal period (+ a little jitter)
//  337     osal_start_timerEx( SampleApp_TaskID, NISL_ZLC_COUNT_EVT,
//  338         (SAMPLEAPP_SEND_PERIODIC_MSG_TIMEOUT + (osal_rand() & 0x00FF)) );
        ; Setup parameters for call to function osal_rand
        LCALL   ?Subroutine2 & 0xFFFF
??CrossCallReturnLabel_0:
        LCALL   ?Subroutine3 & 0xFFFF
//  339 
//  340     // return unprocessed events
//  341     return (events ^ SAMPLEAPP_SEND_PERIODIC_MSG_EVT);
??CrossCallReturnLabel_3:
        MOV     A,R6
        XRL     A,#0x1
??SampleApp_ProcessEvent_10:
        MOV     R2,A
        MOV     A,R7
        SJMP    ??SampleApp_ProcessEvent_7
//  342   }
//  343   
//  344   //Defined by Lichao Zhang
//  345   if ( events & NISL_ZLC_COUNT_EVT )
??SampleApp_ProcessEvent_9:
        ANL     A,#0x10
        JZ      ??SampleApp_ProcessEvent_11
//  346   {
//  347     
//  348     if(flag < 3)
        MOV     DPTR,#flag
        CLR     C
        MOVX    A,@DPTR
        SUBB    A,#0x3
        INC     DPTR
        MOVX    A,@DPTR
        SUBB    A,#0x0
        MOV     C,0xD0 /* PSW */.2
        XRL     A,PSW
        RLC     A
        MOV     DPTR,#flag
        JNC     ??SampleApp_ProcessEvent_12
//  349     {
//  350       flag++;
        MOVX    A,@DPTR
        ADD     A,#0x1
        MOVX    @DPTR,A
        INC     DPTR
        MOVX    A,@DPTR
        ADDC    A,#0x0
        MOVX    @DPTR,A
//  351       osal_start_timerEx( SampleApp_TaskID, NISL_ZLC_COUNT_EVT,
//  352         (SAMPLEAPP_SEND_PERIODIC_MSG_TIMEOUT + (osal_rand() & 0x00FF)) );
        ; Setup parameters for call to function osal_rand
        LCALL   ?Subroutine2 & 0xFFFF
//  353     }
??CrossCallReturnLabel_1:
        SJMP    ??SampleApp_ProcessEvent_13
//  354     else
//  355     {
//  356       flag = 0;
??SampleApp_ProcessEvent_12:
        CLR     A
        MOVX    @DPTR,A
        INC     DPTR
        MOVX    @DPTR,A
//  357       osal_start_timerEx( SampleApp_TaskID,
//  358                          SAMPLEAPP_SEND_PERIODIC_MSG_EVT,
//  359                          SAMPLEAPP_SEND_PERIODIC_MSG_TIMEOUT );
        ; Setup parameters for call to function osal_start_timerEx
        MOV     R4,#-0x18
        MOV     R5,#0x3
        MOV     R2,#0x1
        MOV     R3,A
//  360     }
??SampleApp_ProcessEvent_13:
        LCALL   ?Subroutine3 & 0xFFFF
//  361     return (events ^ NISL_ZLC_COUNT_EVT);
??CrossCallReturnLabel_4:
        MOV     A,R6
        XRL     A,#0x10
        SJMP    ??SampleApp_ProcessEvent_10
//  362   }
//  363 
//  364   // Discard unknown events
//  365   return 0;
??SampleApp_ProcessEvent_11:
        MOV     R2,#0x0
        MOV     R3,#0x0
        CFI EndBlock cfiBlock1
??SampleApp_ProcessEvent_8:
        REQUIRE ?Subroutine0
        ; // Fall through to label ?Subroutine0
//  366 }

        RSEG BANKED_CODE:CODE:NOROOT(0)
?Subroutine0:
        CFI Block cfiBlock2 Using cfiCommon0
        CFI NoFunction
        CFI CFA_SP SP+0
        CFI CFA_XSP16 add(XSP16, 12)
        CFI VB load(1, XDATA, add(CFA_XSP16, literal(-11)))
        CFI DPL0 load(1, XDATA, add(CFA_XSP16, literal(-2)))
        CFI DPH0 load(1, XDATA, add(CFA_XSP16, literal(-1)))
        CFI R6 load(1, XDATA, add(CFA_XSP16, literal(-12)))
        CFI R7 load(1, XDATA, add(CFA_XSP16, literal(-6)))
        CFI V0 load(1, XDATA, add(CFA_XSP16, literal(-10)))
        CFI V1 load(1, XDATA, add(CFA_XSP16, literal(-9)))
        CFI V2 load(1, XDATA, add(CFA_XSP16, literal(-8)))
        CFI V3 load(1, XDATA, add(CFA_XSP16, literal(-7)))
        CFI ?BRET_EXT load(1, XDATA, add(CFA_XSP16, literal(-3)))
        CFI ?RET_HIGH load(1, XDATA, add(CFA_XSP16, literal(-4)))
        CFI ?RET_LOW load(1, XDATA, add(CFA_XSP16, literal(-5)))
        MOV     R7,#0x4
        LJMP    ?BANKED_LEAVE_XDATA
        CFI EndBlock cfiBlock2

        RSEG BANKED_CODE:CODE:NOROOT(0)
?Subroutine3:
        CFI Block cfiCond3 Using cfiCommon0
        CFI NoFunction
        CFI Conditional ??CrossCallReturnLabel_2
        CFI R6 load(1, XDATA, add(CFA_XSP16, literal(-12)))
        CFI VB load(1, XDATA, add(CFA_XSP16, literal(-11)))
        CFI V0 load(1, XDATA, add(CFA_XSP16, literal(-10)))
        CFI V1 load(1, XDATA, add(CFA_XSP16, literal(-9)))
        CFI V2 load(1, XDATA, add(CFA_XSP16, literal(-8)))
        CFI V3 load(1, XDATA, add(CFA_XSP16, literal(-7)))
        CFI R7 load(1, XDATA, add(CFA_XSP16, literal(-6)))
        CFI ?RET_LOW load(1, XDATA, add(CFA_XSP16, literal(-5)))
        CFI ?RET_HIGH load(1, XDATA, add(CFA_XSP16, literal(-4)))
        CFI ?BRET_EXT load(1, XDATA, add(CFA_XSP16, literal(-3)))
        CFI DPL0 load(1, XDATA, add(CFA_XSP16, literal(-2)))
        CFI DPH0 load(1, XDATA, add(CFA_XSP16, literal(-1)))
        CFI CFA_SP SP+0
        CFI CFA_XSP16 add(XSP16, 12)
        CFI Block cfiCond4 Using cfiCommon0
        CFI (cfiCond4) NoFunction
        CFI (cfiCond4) Conditional ??CrossCallReturnLabel_3
        CFI (cfiCond4) R6 load(1, XDATA, add(CFA_XSP16, literal(-12)))
        CFI (cfiCond4) VB load(1, XDATA, add(CFA_XSP16, literal(-11)))
        CFI (cfiCond4) V0 load(1, XDATA, add(CFA_XSP16, literal(-10)))
        CFI (cfiCond4) V1 load(1, XDATA, add(CFA_XSP16, literal(-9)))
        CFI (cfiCond4) V2 load(1, XDATA, add(CFA_XSP16, literal(-8)))
        CFI (cfiCond4) V3 load(1, XDATA, add(CFA_XSP16, literal(-7)))
        CFI (cfiCond4) R7 load(1, XDATA, add(CFA_XSP16, literal(-6)))
        CFI (cfiCond4) ?RET_LOW load(1, XDATA, add(CFA_XSP16, literal(-5)))
        CFI (cfiCond4) ?RET_HIGH load(1, XDATA, add(CFA_XSP16, literal(-4)))
        CFI (cfiCond4) ?BRET_EXT load(1, XDATA, add(CFA_XSP16, literal(-3)))
        CFI (cfiCond4) DPL0 load(1, XDATA, add(CFA_XSP16, literal(-2)))
        CFI (cfiCond4) DPH0 load(1, XDATA, add(CFA_XSP16, literal(-1)))
        CFI (cfiCond4) CFA_SP SP+0
        CFI (cfiCond4) CFA_XSP16 add(XSP16, 12)
        CFI Block cfiCond5 Using cfiCommon0
        CFI (cfiCond5) NoFunction
        CFI (cfiCond5) Conditional ??CrossCallReturnLabel_4
        CFI (cfiCond5) R6 load(1, XDATA, add(CFA_XSP16, literal(-12)))
        CFI (cfiCond5) VB load(1, XDATA, add(CFA_XSP16, literal(-11)))
        CFI (cfiCond5) V0 load(1, XDATA, add(CFA_XSP16, literal(-10)))
        CFI (cfiCond5) V1 load(1, XDATA, add(CFA_XSP16, literal(-9)))
        CFI (cfiCond5) V2 load(1, XDATA, add(CFA_XSP16, literal(-8)))
        CFI (cfiCond5) V3 load(1, XDATA, add(CFA_XSP16, literal(-7)))
        CFI (cfiCond5) R7 load(1, XDATA, add(CFA_XSP16, literal(-6)))
        CFI (cfiCond5) ?RET_LOW load(1, XDATA, add(CFA_XSP16, literal(-5)))
        CFI (cfiCond5) ?RET_HIGH load(1, XDATA, add(CFA_XSP16, literal(-4)))
        CFI (cfiCond5) ?BRET_EXT load(1, XDATA, add(CFA_XSP16, literal(-3)))
        CFI (cfiCond5) DPL0 load(1, XDATA, add(CFA_XSP16, literal(-2)))
        CFI (cfiCond5) DPH0 load(1, XDATA, add(CFA_XSP16, literal(-1)))
        CFI (cfiCond5) CFA_SP SP+0
        CFI (cfiCond5) CFA_XSP16 add(XSP16, 12)
        CFI Block cfiPicker6 Using cfiCommon1
        CFI (cfiPicker6) NoFunction
        CFI (cfiPicker6) Picker
        MOV     DPTR,#SampleApp_TaskID
        MOVX    A,@DPTR
        MOV     R1,A
        LCALL   ??osal_start_timerEx?relay
        RET
        CFI EndBlock cfiCond3
        CFI EndBlock cfiCond4
        CFI EndBlock cfiCond5
        CFI EndBlock cfiPicker6

        RSEG BANKED_CODE:CODE:NOROOT(0)
?Subroutine2:
        CFI Block cfiCond7 Using cfiCommon0
        CFI NoFunction
        CFI Conditional ??CrossCallReturnLabel_0
        CFI R6 load(1, XDATA, add(CFA_XSP16, literal(-12)))
        CFI VB load(1, XDATA, add(CFA_XSP16, literal(-11)))
        CFI V0 load(1, XDATA, add(CFA_XSP16, literal(-10)))
        CFI V1 load(1, XDATA, add(CFA_XSP16, literal(-9)))
        CFI V2 load(1, XDATA, add(CFA_XSP16, literal(-8)))
        CFI V3 load(1, XDATA, add(CFA_XSP16, literal(-7)))
        CFI R7 load(1, XDATA, add(CFA_XSP16, literal(-6)))
        CFI ?RET_LOW load(1, XDATA, add(CFA_XSP16, literal(-5)))
        CFI ?RET_HIGH load(1, XDATA, add(CFA_XSP16, literal(-4)))
        CFI ?BRET_EXT load(1, XDATA, add(CFA_XSP16, literal(-3)))
        CFI DPL0 load(1, XDATA, add(CFA_XSP16, literal(-2)))
        CFI DPH0 load(1, XDATA, add(CFA_XSP16, literal(-1)))
        CFI CFA_SP SP+0
        CFI CFA_XSP16 add(XSP16, 12)
        CFI Block cfiCond8 Using cfiCommon0
        CFI (cfiCond8) NoFunction
        CFI (cfiCond8) Conditional ??CrossCallReturnLabel_1
        CFI (cfiCond8) R6 load(1, XDATA, add(CFA_XSP16, literal(-12)))
        CFI (cfiCond8) VB load(1, XDATA, add(CFA_XSP16, literal(-11)))
        CFI (cfiCond8) V0 load(1, XDATA, add(CFA_XSP16, literal(-10)))
        CFI (cfiCond8) V1 load(1, XDATA, add(CFA_XSP16, literal(-9)))
        CFI (cfiCond8) V2 load(1, XDATA, add(CFA_XSP16, literal(-8)))
        CFI (cfiCond8) V3 load(1, XDATA, add(CFA_XSP16, literal(-7)))
        CFI (cfiCond8) R7 load(1, XDATA, add(CFA_XSP16, literal(-6)))
        CFI (cfiCond8) ?RET_LOW load(1, XDATA, add(CFA_XSP16, literal(-5)))
        CFI (cfiCond8) ?RET_HIGH load(1, XDATA, add(CFA_XSP16, literal(-4)))
        CFI (cfiCond8) ?BRET_EXT load(1, XDATA, add(CFA_XSP16, literal(-3)))
        CFI (cfiCond8) DPL0 load(1, XDATA, add(CFA_XSP16, literal(-2)))
        CFI (cfiCond8) DPH0 load(1, XDATA, add(CFA_XSP16, literal(-1)))
        CFI (cfiCond8) CFA_SP SP+0
        CFI (cfiCond8) CFA_XSP16 add(XSP16, 12)
        CFI Block cfiPicker9 Using cfiCommon1
        CFI (cfiPicker9) NoFunction
        CFI (cfiPicker9) Picker
        LCALL   ??osal_rand?relay
        ; Setup parameters for call to function osal_start_timerEx
        ; Setup parameters for call to function osal_start_timerEx
        MOV     A,R2
        ADD     A,#-0x18
        MOV     R4,A
        CLR     A
        ADDC    A,#0x3
        MOV     R5,A
        MOV     R2,#0x10
        MOV     R3,#0x0
        RET
        CFI EndBlock cfiCond7
        CFI EndBlock cfiCond8
        CFI EndBlock cfiPicker9
//  367 
//  368 /*********************************************************************
//  369  * Event Generation Functions
//  370  */
//  371 /*********************************************************************
//  372  * @fn      SampleApp_HandleKeys
//  373  *
//  374  * @brief   Handles all key events for this device.
//  375  *
//  376  * @param   shift - true if in shift/alt.
//  377  * @param   keys - bit field for key events. Valid entries:
//  378  *                 HAL_KEY_SW_2
//  379  *                 HAL_KEY_SW_1
//  380  *
//  381  * @return  none
//  382  */

        RSEG BANKED_CODE:CODE:NOROOT(0)
//  383 void SampleApp_HandleKeys( uint8 shift, uint8 keys )
SampleApp_HandleKeys:
        CFI Block cfiBlock10 Using cfiCommon0
        CFI Function SampleApp_HandleKeys
        CODE
//  384 {
        FUNCALL SampleApp_HandleKeys, SampleApp_SendFlashMessage
        LOCFRAME ISTACK, 0, STACK
        LOCFRAME PSTACK, 0, STACK
        LOCFRAME XSTACK, 10, STACK
        LOCFRAME IOVERLAY, 0, STATIC
        LOCFRAME DOVERLAY, 0, STATIC
        ARGFRAME ISTACK, 0, STACK
        ARGFRAME PSTACK, 0, STACK
        ARGFRAME XSTACK, 10, STACK
        ARGFRAME IOVERLAY, 0, STATIC
        ARGFRAME DOVERLAY, 0, STATIC
        FUNCALL SampleApp_HandleKeys, aps_FindGroup
        LOCFRAME ISTACK, 0, STACK
        LOCFRAME PSTACK, 0, STACK
        LOCFRAME XSTACK, 10, STACK
        LOCFRAME IOVERLAY, 0, STATIC
        LOCFRAME DOVERLAY, 0, STATIC
        ARGFRAME ISTACK, 0, STACK
        ARGFRAME PSTACK, 0, STACK
        ARGFRAME XSTACK, 10, STACK
        ARGFRAME IOVERLAY, 0, STATIC
        ARGFRAME DOVERLAY, 0, STATIC
        FUNCALL SampleApp_HandleKeys, aps_RemoveGroup
        LOCFRAME ISTACK, 0, STACK
        LOCFRAME PSTACK, 0, STACK
        LOCFRAME XSTACK, 10, STACK
        LOCFRAME IOVERLAY, 0, STATIC
        LOCFRAME DOVERLAY, 0, STATIC
        ARGFRAME ISTACK, 0, STACK
        ARGFRAME PSTACK, 0, STACK
        ARGFRAME XSTACK, 10, STACK
        ARGFRAME IOVERLAY, 0, STATIC
        ARGFRAME DOVERLAY, 0, STATIC
        FUNCALL SampleApp_HandleKeys, aps_AddGroup
        LOCFRAME ISTACK, 0, STACK
        LOCFRAME PSTACK, 0, STACK
        LOCFRAME XSTACK, 10, STACK
        LOCFRAME IOVERLAY, 0, STATIC
        LOCFRAME DOVERLAY, 0, STATIC
        ARGFRAME ISTACK, 0, STACK
        ARGFRAME PSTACK, 0, STACK
        ARGFRAME XSTACK, 10, STACK
        ARGFRAME IOVERLAY, 0, STATIC
        ARGFRAME DOVERLAY, 0, STATIC
        MOV     A,#-0xa
        LCALL   ?BANKED_ENTER_XDATA
        CFI DPH0 load(1, XDATA, add(CFA_XSP16, literal(-1)))
        CFI DPL0 load(1, XDATA, add(CFA_XSP16, literal(-2)))
        CFI ?BRET_EXT load(1, XDATA, add(CFA_XSP16, literal(-3)))
        CFI ?RET_HIGH load(1, XDATA, add(CFA_XSP16, literal(-4)))
        CFI ?RET_LOW load(1, XDATA, add(CFA_XSP16, literal(-5)))
        CFI R7 load(1, XDATA, add(CFA_XSP16, literal(-6)))
        CFI V1 load(1, XDATA, add(CFA_XSP16, literal(-7)))
        CFI V0 load(1, XDATA, add(CFA_XSP16, literal(-8)))
        CFI VB load(1, XDATA, add(CFA_XSP16, literal(-9)))
        CFI R6 load(1, XDATA, add(CFA_XSP16, literal(-10)))
        CFI CFA_SP SP+0
        CFI CFA_XSP16 add(XSP16, 10)
        ; Saved register size: 10
        ; Auto size: 0
        MOV     A,R2
        MOV     R6,A
//  385   (void)shift;  // Intentionally unreferenced parameter
//  386   
//  387   if ( keys & HAL_KEY_SW_1 )
        MOV     C,0xE0 /* A   */.0
        JNC     ??SampleApp_HandleKeys_0
//  388   {
//  389     /* This key sends the Flash Command is sent to Group 1.
//  390      * This device will not receive the Flash Command from this
//  391      * device (even if it belongs to group 1).
//  392      */
//  393     SampleApp_SendFlashMessage( SAMPLEAPP_FLASH_DURATION );
        ; Setup parameters for call to function SampleApp_SendFlashMessage
        MOV     R2,#-0x18
        MOV     R3,#0x3
        LCALL   ??SampleApp_SendFlashMessage?relay
//  394   }
//  395 
//  396   if ( keys & HAL_KEY_SW_2 )
??SampleApp_HandleKeys_0:
        MOV     A,R6
        MOV     C,0xE0 /* A   */.1
        JNC     ??SampleApp_HandleKeys_1
//  397   {
//  398     /* The Flashr Command is sent to Group 1.
//  399      * This key toggles this device in and out of group 1.
//  400      * If this device doesn't belong to group 1, this application
//  401      * will not receive the Flash command sent to group 1.
//  402      */
//  403     aps_Group_t *grp;
//  404     grp = aps_FindGroup( SAMPLEAPP_ENDPOINT, SAMPLEAPP_FLASH_GROUP );
//  405     if ( grp )
        ; Setup parameters for call to function aps_FindGroup
        MOV     R2,#0x1
        MOV     R3,#0x0
        MOV     R1,#0x14
        LCALL   ??aps_FindGroup?relay
        MOV     ?V0 + 1,R3
        MOV     A,R2
        ORL     A,?V0 + 1
        JZ      ??SampleApp_HandleKeys_2
//  406     {
//  407       // Remove from the group
//  408       aps_RemoveGroup( SAMPLEAPP_ENDPOINT, SAMPLEAPP_FLASH_GROUP );
        ; Setup parameters for call to function aps_RemoveGroup
        MOV     R2,#0x1
        MOV     R3,#0x0
        MOV     R1,#0x14
        LCALL   ??aps_RemoveGroup?relay
        SJMP    ??SampleApp_HandleKeys_1
//  409     }
//  410     else
//  411     {
//  412       // Add to the flash group
//  413       aps_AddGroup( SAMPLEAPP_ENDPOINT, &SampleApp_Group );
??SampleApp_HandleKeys_2:
        ; Setup parameters for call to function aps_AddGroup
        MOV     R2,#SampleApp_Group & 0xff
        MOV     R3,#(SampleApp_Group >> 8) & 0xff
        MOV     R1,#0x14
        LCALL   ??aps_AddGroup?relay
        CFI EndBlock cfiBlock10
//  414     }
//  415   }
//  416 }
??SampleApp_HandleKeys_1:
        REQUIRE ?Subroutine1
        ; // Fall through to label ?Subroutine1

        RSEG BANKED_CODE:CODE:NOROOT(0)
?Subroutine1:
        CFI Block cfiBlock11 Using cfiCommon0
        CFI NoFunction
        CFI CFA_SP SP+0
        CFI CFA_XSP16 add(XSP16, 10)
        CFI VB load(1, XDATA, add(CFA_XSP16, literal(-9)))
        CFI DPL0 load(1, XDATA, add(CFA_XSP16, literal(-2)))
        CFI DPH0 load(1, XDATA, add(CFA_XSP16, literal(-1)))
        CFI R6 load(1, XDATA, add(CFA_XSP16, literal(-10)))
        CFI R7 load(1, XDATA, add(CFA_XSP16, literal(-6)))
        CFI V0 load(1, XDATA, add(CFA_XSP16, literal(-8)))
        CFI V1 load(1, XDATA, add(CFA_XSP16, literal(-7)))
        CFI ?BRET_EXT load(1, XDATA, add(CFA_XSP16, literal(-3)))
        CFI ?RET_HIGH load(1, XDATA, add(CFA_XSP16, literal(-4)))
        CFI ?RET_LOW load(1, XDATA, add(CFA_XSP16, literal(-5)))
        MOV     R7,#0x2
        LJMP    ?BANKED_LEAVE_XDATA
        CFI EndBlock cfiBlock11
//  417 
//  418 /*********************************************************************
//  419  * LOCAL FUNCTIONS
//  420  */
//  421 
//  422 /*********************************************************************
//  423  * @fn      SampleApp_MessageMSGCB
//  424  *
//  425  * @brief   Data message processor callback.  This function processes
//  426  *          any incoming data - probably from other devices.  So, based
//  427  *          on cluster ID, perform the intended action.
//  428  *
//  429  * @param   none
//  430  *
//  431  * @return  none
//  432  */

        RSEG BANKED_CODE:CODE:NOROOT(0)
//  433 void SampleApp_MessageMSGCB( afIncomingMSGPacket_t *pkt ) //接收数据
SampleApp_MessageMSGCB:
        CFI Block cfiBlock12 Using cfiCommon0
        CFI Function SampleApp_MessageMSGCB
        CODE
//  434 {
        FUNCALL SampleApp_MessageMSGCB, HalUARTWrite
        LOCFRAME ISTACK, 0, STACK
        LOCFRAME PSTACK, 0, STACK
        LOCFRAME XSTACK, 12, STACK
        LOCFRAME IOVERLAY, 0, STATIC
        LOCFRAME DOVERLAY, 0, STATIC
        ARGFRAME ISTACK, 0, STACK
        ARGFRAME PSTACK, 0, STACK
        ARGFRAME XSTACK, 12, STACK
        ARGFRAME IOVERLAY, 0, STATIC
        ARGFRAME DOVERLAY, 0, STATIC
        FUNCALL SampleApp_MessageMSGCB, HalUARTWrite
        LOCFRAME ISTACK, 0, STACK
        LOCFRAME PSTACK, 0, STACK
        LOCFRAME XSTACK, 12, STACK
        LOCFRAME IOVERLAY, 0, STATIC
        LOCFRAME DOVERLAY, 0, STATIC
        ARGFRAME ISTACK, 0, STACK
        ARGFRAME PSTACK, 0, STACK
        ARGFRAME XSTACK, 12, STACK
        ARGFRAME IOVERLAY, 0, STATIC
        ARGFRAME DOVERLAY, 0, STATIC
        FUNCALL SampleApp_MessageMSGCB, HalUARTWrite
        LOCFRAME ISTACK, 0, STACK
        LOCFRAME PSTACK, 0, STACK
        LOCFRAME XSTACK, 12, STACK
        LOCFRAME IOVERLAY, 0, STATIC
        LOCFRAME DOVERLAY, 0, STATIC
        ARGFRAME ISTACK, 0, STACK
        ARGFRAME PSTACK, 0, STACK
        ARGFRAME XSTACK, 12, STACK
        ARGFRAME IOVERLAY, 0, STATIC
        ARGFRAME DOVERLAY, 0, STATIC
        FUNCALL SampleApp_MessageMSGCB, HalLedBlink
        LOCFRAME ISTACK, 0, STACK
        LOCFRAME PSTACK, 0, STACK
        LOCFRAME XSTACK, 12, STACK
        LOCFRAME IOVERLAY, 0, STATIC
        LOCFRAME DOVERLAY, 0, STATIC
        ARGFRAME ISTACK, 0, STACK
        ARGFRAME PSTACK, 0, STACK
        ARGFRAME XSTACK, 12, STACK
        ARGFRAME IOVERLAY, 0, STATIC
        ARGFRAME DOVERLAY, 0, STATIC
        MOV     A,#-0xc
        LCALL   ?BANKED_ENTER_XDATA
        CFI DPH0 load(1, XDATA, add(CFA_XSP16, literal(-1)))
        CFI DPL0 load(1, XDATA, add(CFA_XSP16, literal(-2)))
        CFI ?BRET_EXT load(1, XDATA, add(CFA_XSP16, literal(-3)))
        CFI ?RET_HIGH load(1, XDATA, add(CFA_XSP16, literal(-4)))
        CFI ?RET_LOW load(1, XDATA, add(CFA_XSP16, literal(-5)))
        CFI R7 load(1, XDATA, add(CFA_XSP16, literal(-6)))
        CFI V3 load(1, XDATA, add(CFA_XSP16, literal(-7)))
        CFI V2 load(1, XDATA, add(CFA_XSP16, literal(-8)))
        CFI V1 load(1, XDATA, add(CFA_XSP16, literal(-9)))
        CFI V0 load(1, XDATA, add(CFA_XSP16, literal(-10)))
        CFI VB load(1, XDATA, add(CFA_XSP16, literal(-11)))
        CFI R6 load(1, XDATA, add(CFA_XSP16, literal(-12)))
        CFI CFA_SP SP+0
        CFI CFA_XSP16 add(XSP16, 12)
        ; Saved register size: 12
        ; Auto size: 0
        MOV     A,R2
        MOV     R6,A
        MOV     A,R3
        MOV     R7,A
//  435   uint16 flashTime;
//  436 
//  437   switch ( pkt->clusterId )
        MOV     A,R6
        ADD     A,#0x21
        MOV     ?V0 + 0,A
        MOV     A,R7
        ADDC    A,#0x0
        MOV     ?V0 + 1,A
        MOV     DPL,R6
        MOV     DPH,R7
        INC     DPTR
        INC     DPTR
        INC     DPTR
        INC     DPTR
        MOVX    A,@DPTR
        MOV     ?V0 + 2,A
        INC     DPTR
        MOVX    A,@DPTR
        MOV     ?V0 + 3,A
        MOV     R0,#?V0 + 2
        LCALL   ?US_SWITCH_DENSE
`?<Jumptable for SampleApp_MessageMSGCB>_0`:
        DATA
        DATA16
        DATA
        DATA16
        DW        1
        DATA
        DATA8
        DATA
        DATA8
        DB        1
        DATA
        DATA16
        DATA
        DATA16
        DW        ??SampleApp_MessageMSGCB_0
        DATA
        DATA16
        DATA
        DATA16
        DW        ??SampleApp_MessageMSGCB_1
        DATA
        DATA16
        DATA
        DATA16
        DW        ??SampleApp_MessageMSGCB_2
        CODE
//  438   {
//  439     case SAMPLEAPP_PERIODIC_CLUSTERID:
//  440       HalUARTWrite(0, "Rx:", 3);        //提示信息
??SampleApp_MessageMSGCB_1:
        ; Setup parameters for call to function HalUARTWrite
        MOV     R4,#0x3
        MOV     R5,#0x0
        MOV     R2,#`?<Constant "Rx:">` & 0xff
        MOV     R3,#(`?<Constant "Rx:">` >> 8) & 0xff
        MOV     R1,#0x0
        LCALL   ??HalUARTWrite?relay
//  441       HalUARTWrite(0, pkt->cmd.Data, pkt->cmd.DataLength); //输出接收到的数据
        ; Setup parameters for call to function HalUARTWrite
        MOV     A,R6
        ADD     A,#0x1f
        MOV     DPL,A
        MOV     A,R7
        ADDC    A,#0x0
        MOV     DPH,A
        MOVX    A,@DPTR
        MOV     R4,A
        INC     DPTR
        MOVX    A,@DPTR
        MOV     R5,A
        MOV     DPL,?V0 + 0
        MOV     DPH,?V0 + 1
        MOVX    A,@DPTR
        MOV     R2,A
        INC     DPTR
        MOVX    A,@DPTR
        MOV     R3,A
        MOV     R1,#0x0
        LCALL   ??HalUARTWrite?relay
//  442       HalUARTWrite(0, "\n", 1);         //回车换行
        ; Setup parameters for call to function HalUARTWrite
        MOV     R4,#0x1
        MOV     R5,#0x0
        MOV     R2,#`?<Constant "\\n">` & 0xff
        MOV     R3,#(`?<Constant "\\n">` >> 8) & 0xff
        MOV     R1,#0x0
        LCALL   ??HalUARTWrite?relay
//  443       break;
        SJMP    ??SampleApp_MessageMSGCB_0
//  444 
//  445     case SAMPLEAPP_FLASH_CLUSTERID:     //此实验没有使用，到后面实验详解
//  446       flashTime = BUILD_UINT16(pkt->cmd.Data[1], pkt->cmd.Data[2] );
//  447       HalLedBlink( HAL_LED_4, 4, 50, (flashTime / 4) );
??SampleApp_MessageMSGCB_2:
        MOV     DPL,?V0 + 0
        MOV     DPH,?V0 + 1
        MOVX    A,@DPTR
        MOV     R0,A
        INC     DPTR
        MOVX    A,@DPTR
        MOV     R1,A
        ; Setup parameters for call to function HalLedBlink
        MOV     DPL,R0
        MOV     DPH,R1
        INC     DPTR
        MOVX    A,@DPTR
        MOV     R2,A
        MOV     DPL,R0
        MOV     DPH,R1
        INC     DPTR
        INC     DPTR
        MOVX    A,@DPTR
        MOV     R1,A
        MOV     A,R2
        ADD     A,#0x0
        MOV     ?V0 + 0,A
        CLR     A
        ADDC    A,R1
        MOV     ?V0 + 1,A
        MOV     A,#0x2
        MOV     R0,#?V0 + 0
        LCALL   ?US_SHR
        MOV     R4,?V0 + 0
        MOV     R5,?V0 + 1
        MOV     R3,#0x32
        MOV     R2,#0x4
        MOV     R1,#0x8
        LCALL   ??HalLedBlink?relay
//  448       break;
//  449   }
//  450 }
??SampleApp_MessageMSGCB_0:
        LJMP    ?Subroutine0 & 0xFFFF
        CFI EndBlock cfiBlock12
//  451 
//  452 /*********************************************************************
//  453  * @fn      SampleApp_SendPeriodicMessage
//  454  *
//  455  * @brief   Send the periodic message.
//  456  *
//  457  * @param   none
//  458  *
//  459  * @return  none
//  460  */

        RSEG BANKED_CODE:CODE:NOROOT(0)
//  461 void SampleApp_SendPeriodicMessage( void )
SampleApp_SendPeriodicMessage:
        CFI Block cfiBlock13 Using cfiCommon0
        CFI Function SampleApp_SendPeriodicMessage
        CODE
//  462 {
        FUNCALL SampleApp_SendPeriodicMessage, HalUARTWrite
        LOCFRAME ISTACK, 2, STACK
        LOCFRAME PSTACK, 0, STACK
        LOCFRAME XSTACK, 11, STACK
        LOCFRAME IOVERLAY, 0, STATIC
        LOCFRAME DOVERLAY, 0, STATIC
        ARGFRAME ISTACK, 2, STACK
        ARGFRAME PSTACK, 0, STACK
        ARGFRAME XSTACK, 11, STACK
        ARGFRAME IOVERLAY, 0, STATIC
        ARGFRAME DOVERLAY, 0, STATIC
        PUSH    DPL
        CFI DPL0 Frame(CFA_SP, 4)
        CFI CFA_SP SP+-4
        PUSH    DPH
        CFI DPH0 Frame(CFA_SP, 5)
        CFI CFA_SP SP+-5
        ; Saved register size: 2
        ; Auto size: 11
        MOV     A,#-0xb
        LCALL   ?ALLOC_XSTACK8
        CFI CFA_XSP16 add(XSP16, 11)
//  463  
//  464   uint8 data[11]="0123456789";
        MOV     DPL,?XSP + 0
        MOV     DPH,?XSP + 1
        MOV     R4,DPL
        MOV     R5,DPH
        MOV     DPH,#(`?<Constant "0123456789">` >> 8) & 0xff
        MOV     DPL,#`?<Constant "0123456789">` & 0xff
        MOV     A,#0xb
        LCALL   ?MOVE_LONG8_XDATA_XDATA
//  465   HalUARTWrite(0,data,10);
        ; Setup parameters for call to function HalUARTWrite
        MOV     R4,#0xa
        MOV     R5,A
        MOV     DPL,?XSP + 0
        MOV     DPH,?XSP + 1
        MOV     R2,DPL
        MOV     R3,DPH
        MOV     R1,A
        LCALL   ??HalUARTWrite?relay
//  466   
//  467 //  if(0/*HalUARTRead(0,re,10)*/){
//  468 //    if ( AF_DataRequest( &SampleApp_Periodic_DstAddr, &SampleApp_epDesc,
//  469 //                       SAMPLEAPP_PERIODIC_CLUSTERID,
//  470 //                       10,
//  471 //                       data,
//  472 //                       &SampleApp_TransID,
//  473 //                       AF_DISCV_ROUTE,
//  474 //                       AF_DEFAULT_RADIUS ) == afStatus_SUCCESS )
//  475 //  {//张立超添加
//  476 //    HalLedSet (HAL_LED_2, HAL_LED_MODE_TOGGLE);   //设置灯状态
//  477 ////    HAL_TURN_ON_LED1();
//  478 ////    HAL_TURN_OFF_LED2();
//  479 ////    HAL_TURN_ON_LED3();
//  480 ////    HAL_TURN_OFF_LED4();
//  481 //  }
//  482 //  else
//  483 //  {
//  484 //    // Error occurred in request to send.
//  485 //  }
//  486 //  }
//  487   
//  488 }
        MOV     A,#0xb
        LCALL   ?DEALLOC_XSTACK8
        CFI CFA_XSP16 XSP16+0
        POP     DPH
        CFI DPH0 SameValue
        CFI CFA_SP SP+-4
        POP     DPL
        CFI DPL0 SameValue
        CFI CFA_SP SP+-3
        LJMP    ?BRET
        CFI EndBlock cfiBlock13
//  489 
//  490 /*********************************************************************
//  491  * @fn      SampleApp_SendFlashMessage
//  492  *
//  493  * @brief   Send the flash message to group 1.
//  494  *
//  495  * @param   flashTime - in milliseconds
//  496  *
//  497  * @return  none
//  498  */

        RSEG BANKED_CODE:CODE:NOROOT(0)
//  499 void SampleApp_SendFlashMessage( uint16 flashTime )
SampleApp_SendFlashMessage:
        CFI Block cfiBlock14 Using cfiCommon0
        CFI Function SampleApp_SendFlashMessage
        CODE
//  500 {
        FUNCALL SampleApp_SendFlashMessage, AF_DataRequest
        LOCFRAME ISTACK, 0, STACK
        LOCFRAME PSTACK, 0, STACK
        LOCFRAME XSTACK, 22, STACK
        LOCFRAME IOVERLAY, 0, STATIC
        LOCFRAME DOVERLAY, 0, STATIC
        ARGFRAME ISTACK, 0, STACK
        ARGFRAME PSTACK, 0, STACK
        ARGFRAME XSTACK, 22, STACK
        ARGFRAME IOVERLAY, 0, STATIC
        ARGFRAME DOVERLAY, 0, STATIC
        MOV     A,#-0xa
        LCALL   ?BANKED_ENTER_XDATA
        CFI DPH0 load(1, XDATA, add(CFA_XSP16, literal(-1)))
        CFI DPL0 load(1, XDATA, add(CFA_XSP16, literal(-2)))
        CFI ?BRET_EXT load(1, XDATA, add(CFA_XSP16, literal(-3)))
        CFI ?RET_HIGH load(1, XDATA, add(CFA_XSP16, literal(-4)))
        CFI ?RET_LOW load(1, XDATA, add(CFA_XSP16, literal(-5)))
        CFI R7 load(1, XDATA, add(CFA_XSP16, literal(-6)))
        CFI V1 load(1, XDATA, add(CFA_XSP16, literal(-7)))
        CFI V0 load(1, XDATA, add(CFA_XSP16, literal(-8)))
        CFI VB load(1, XDATA, add(CFA_XSP16, literal(-9)))
        CFI R6 load(1, XDATA, add(CFA_XSP16, literal(-10)))
        CFI CFA_SP SP+0
        CFI CFA_XSP16 add(XSP16, 10)
        ; Saved register size: 10
        ; Auto size: 3
        MOV     A,#-0x3
        LCALL   ?ALLOC_XSTACK8
        CFI CFA_XSP16 add(XSP16, 13)
//  501   uint8 buffer[3];
//  502   buffer[0] = (uint8)(SampleAppFlashCounter++);
        MOV     DPTR,#SampleAppFlashCounter
        MOVX    A,@DPTR
        MOV     DPL,?XSP + 0
        MOV     DPH,?XSP + 1
        MOVX    @DPTR,A
        MOV     DPTR,#SampleAppFlashCounter
        MOVX    A,@DPTR
        INC     A
        MOVX    @DPTR,A
//  503   buffer[1] = LO_UINT16( flashTime );
        MOV     A,#0x1
        LCALL   ?XSTACK_DISP0_8
        MOV     A,R2
        MOVX    @DPTR,A
//  504   buffer[2] = HI_UINT16( flashTime );
        MOV     A,#0x2
        LCALL   ?XSTACK_DISP0_8
        MOV     A,R3
        MOVX    @DPTR,A
//  505 
//  506   if ( AF_DataRequest( &SampleApp_Flash_DstAddr, &SampleApp_epDesc,
//  507                        SAMPLEAPP_FLASH_CLUSTERID,
//  508                        3,
//  509                        buffer,
//  510                        &SampleApp_TransID,
//  511                        AF_DISCV_ROUTE,
//  512                        AF_DEFAULT_RADIUS ) == afStatus_SUCCESS )
        ; Setup parameters for call to function AF_DataRequest
        MOV     ?V0 + 0,#0x1e
        MOV     R0,#?V0 + 0
        LCALL   ?PUSH_XSTACK_I_ONE
        CFI CFA_XSP16 add(XSP16, 14)
        MOV     ?V0 + 0,#SampleApp_TransID & 0xff
        MOV     ?V0 + 1,#(SampleApp_TransID >> 8) & 0xff
        MOV     R0,#?V0 + 0
        LCALL   ?PUSH_XSTACK_I_TWO
        CFI CFA_XSP16 add(XSP16, 16)
        MOV     A,#0x3
        LCALL   ?XSTACK_DISP0_8
        MOV     ?V0 + 0,DPL
        MOV     ?V0 + 1,DPH
        MOV     R0,#?V0 + 0
        LCALL   ?PUSH_XSTACK_I_TWO
        CFI CFA_XSP16 add(XSP16, 18)
        MOV     ?V0 + 0,#0x3
        MOV     ?V0 + 1,#0x0
        MOV     R0,#?V0 + 0
        LCALL   ?PUSH_XSTACK_I_TWO
        CFI CFA_XSP16 add(XSP16, 20)
        MOV     ?V0 + 0,#0x2
        MOV     R0,#?V0 + 0
        LCALL   ?PUSH_XSTACK_I_TWO
        CFI CFA_XSP16 add(XSP16, 22)
        MOV     R1,#0x20
        MOV     R4,#SampleApp_epDesc & 0xff
        MOV     R5,#(SampleApp_epDesc >> 8) & 0xff
        MOV     R2,#SampleApp_Flash_DstAddr & 0xff
        MOV     R3,#(SampleApp_Flash_DstAddr >> 8) & 0xff
        LCALL   ??AF_DataRequest?relay
        MOV     A,#0x9
        LCALL   ?DEALLOC_XSTACK8
        CFI CFA_XSP16 add(XSP16, 13)
//  513   {
//  514   }
//  515   else
//  516   {
//  517     // Error occurred in request to send.
//  518   }
//  519 }
        MOV     A,#0x3
        LCALL   ?DEALLOC_XSTACK8
        CFI CFA_XSP16 add(XSP16, 10)
        LJMP    ?Subroutine1 & 0xFFFF
        CFI EndBlock cfiBlock14

        RSEG BANK_RELAYS:CODE:REORDER:NOROOT(0)
??SampleApp_Init?relay:
        LCALL   ?BDISPATCH
        DATA
        DC24    SampleApp_Init

        RSEG BANK_RELAYS:CODE:REORDER:NOROOT(0)
??SampleApp_ProcessEvent?relay:
        LCALL   ?BDISPATCH
        DATA
        DC24    SampleApp_ProcessEvent

        RSEG BANK_RELAYS:CODE:REORDER:NOROOT(0)
??SampleApp_HandleKeys?relay:
        LCALL   ?BDISPATCH
        DATA
        DC24    SampleApp_HandleKeys

        RSEG BANK_RELAYS:CODE:REORDER:NOROOT(0)
??SampleApp_MessageMSGCB?relay:
        LCALL   ?BDISPATCH
        DATA
        DC24    SampleApp_MessageMSGCB

        RSEG BANK_RELAYS:CODE:REORDER:NOROOT(0)
??SampleApp_SendPeriodicMessage?relay:
        LCALL   ?BDISPATCH
        DATA
        DC24    SampleApp_SendPeriodicMessage

        RSEG BANK_RELAYS:CODE:REORDER:NOROOT(0)
??SampleApp_SendFlashMessage?relay:
        LCALL   ?BDISPATCH
        DATA
        DC24    SampleApp_SendFlashMessage

        RSEG XDATA_ROM_C:CONST:REORDER:NOROOT(0)
        DATA8
`?<Constant "UartInit OK\\n">`:
        DB "UartInit OK\012"

        RSEG XDATA_ROM_C:CONST:REORDER:NOROOT(0)
        DATA8
`?<Constant "Group 1">`:
        DB "Group 1"

        RSEG XDATA_ROM_C:CONST:REORDER:NOROOT(0)
        DATA8
`?<Constant "SampleApp">`:
        DB "SampleApp"

        RSEG XDATA_ROM_C:CONST:REORDER:NOROOT(0)
        DATA32
`?<Constant "Rx:">`:
        DB "Rx:"

        RSEG XDATA_ROM_C:CONST:REORDER:NOROOT(0)
        DATA16
`?<Constant "\\n">`:
        DB "\012"

        RSEG XDATA_ROM_C:CONST:REORDER:NOROOT(0)
        DATA8
`?<Constant "0123456789">`:
        DB "0123456789"

        END
//  520 /*********************************************************************
//  521 *********************************************************************/
// 
// 831 bytes in segment BANKED_CODE
//  36 bytes in segment BANK_RELAYS
//  64 bytes in segment XDATA_ROM_C
//  67 bytes in segment XDATA_Z
// 
// 867 bytes of CODE  memory
//  64 bytes of CONST memory
//  67 bytes of XDATA memory
//
//Errors: none
//Warnings: 2
