###############################################################################
#                                                                             #
# IAR C/C++ Compiler V8.10.1.10194/W32 for 8051         29/Apr/2015  10:46:02 #
# Copyright 2004-2011 IAR Systems AB.                                         #
#                                                                             #
#    Core               =  plain                                              #
#    Code model         =  banked                                             #
#    Data model         =  large                                              #
#    Calling convention =  xdata reentrant                                    #
#    Constant location  =  data_rom                                           #
#    Dptr setup         =  1,16                                               #
#    Source file        =  H:\User\workplace\NISL_ZStack-CC2530-2.3.0-1.4.0\P #
#                          rojects\zstack\Samples\SampleApp--version          #
#                          1.0_2015.4.26\Source\SampleApp.c                   #
#    Command line       =  -f "H:\User\workplace\NISL_ZStack-CC2530-2.3.0-1.4 #
#                          .0\Projects\zstack\Samples\SampleApp--version      #
#                          1.0_2015.4.26\CC2530DB\..\..\..\Tools\CC2530DB\f8w #
#                          Endev.cfg" (-DCPU32MHZ -DROOT=__near_func          #
#                          -DBLINK_LEDS) -f "H:\User\workplace\NISL_ZStack-CC #
#                          2530-2.3.0-1.4.0\Projects\zstack\Samples\SampleApp #
#                          --version 1.0_2015.4.26\CC2530DB\..\..\..\Tools\CC #
#                          2530DB\f8wConfig.cfg" (-DSECURE=0                  #
#                          -DZG_SECURE_DYNAMIC=0 -DREFLECTOR                  #
#                          -DDEFAULT_CHANLIST=0x00000800                      #
#                          -DZDAPP_CONFIG_PAN_ID=0xFFF1                       #
#                          -DNWK_START_DELAY=100 -DEXTENDED_JOINING_RANDOM_MA #
#                          SK=0x007F -DBEACON_REQUEST_DELAY=100               #
#                          -DBEACON_REQ_DELAY_MASK=0x00FF                     #
#                          -DROUTE_EXPIRY_TIME=30 -DAPSC_ACK_WAIT_DURATION_PO #
#                          LLED=3000 -DNWK_INDIRECT_MSG_TIMEOUT=7             #
#                          -DMAX_RREQ_ENTRIES=8 -DAPSC_MAX_FRAME_RETRIES=3    #
#                          -DNWK_MAX_DATA_RETRIES=2                           #
#                          -DMAX_POLL_FAILURE_RETRIES=2 -DMAX_BCAST=9         #
#                          -DAPS_MAX_GROUPS=16 -DMAX_RTG_ENTRIES=40           #
#                          -DNWK_MAX_BINDING_ENTRIES=4                        #
#                          -DMAX_BINDING_CLUSTER_IDS=4 "-DDEFAULT_KEY={0x01,  #
#                          0x03, 0x05, 0x07, 0x09, 0x0B, 0x0D, 0x0F, 0x00,    #
#                          0x02, 0x04, 0x06, 0x08, 0x0A, 0x0C, 0x0D}"         #
#                          -DMAC_MAX_FRAME_SIZE=116 "-DCONST=const __code"    #
#                          -DGENERIC=__generic -DRFD_RCVC_ALWAYS_ON=FALSE     #
#                          -DPOLL_RATE=0 -DQUEUED_POLL_RATE=0                 #
#                          -DRESPONSE_POLL_RATE=0) -DREJOIN_POLL_RATE=440     #
#                          "H:\User\workplace\NISL_ZStack-CC2530-2.3.0-1.4.0\ #
#                          Projects\zstack\Samples\SampleApp--version         #
#                          1.0_2015.4.26\Source\SampleApp.c" -D ZIGBEEPRO -D  #
#                          NWK_AUTO_POLL -D ZTOOL_P1 -D xMT_TASK -D           #
#                          xMT_SYS_FUNC -D xMT_ZDO_FUNC -D                    #
#                          LCD_SUPPORTED=DEBUG -D POWER_SAVING -lC            #
#                          "H:\User\workplace\NISL_ZStack-CC2530-2.3.0-1.4.0\ #
#                          Projects\zstack\Samples\SampleApp--version         #
#                          1.0_2015.4.26\CC2530DB\EndDeviceEB-Pro\List\" -lA  #
#                          "H:\User\workplace\NISL_ZStack-CC2530-2.3.0-1.4.0\ #
#                          Projects\zstack\Samples\SampleApp--version         #
#                          1.0_2015.4.26\CC2530DB\EndDeviceEB-Pro\List\"      #
#                          --diag_suppress Pe001,Pa010 -o                     #
#                          "H:\User\workplace\NISL_ZStack-CC2530-2.3.0-1.4.0\ #
#                          Projects\zstack\Samples\SampleApp--version         #
#                          1.0_2015.4.26\CC2530DB\EndDeviceEB-Pro\Obj\" -e    #
#                          --debug --core=plain --dptr=16,1                   #
#                          --data_model=large --code_model=banked             #
#                          --calling_convention=xdata_reentrant               #
#                          --place_constants=data_rom --nr_virtual_regs 16    #
#                          -I "H:\User\workplace\NISL_ZStack-CC2530-2.3.0-1.4 #
#                          .0\Projects\zstack\Samples\SampleApp--version      #
#                          1.0_2015.4.26\CC2530DB\" -I                        #
#                          "H:\User\workplace\NISL_ZStack-CC2530-2.3.0-1.4.0\ #
#                          Projects\zstack\Samples\SampleApp--version         #
#                          1.0_2015.4.26\CC2530DB\..\SOURCE\" -I              #
#                          "H:\User\workplace\NISL_ZStack-CC2530-2.3.0-1.4.0\ #
#                          Projects\zstack\Samples\SampleApp--version         #
#                          1.0_2015.4.26\CC2530DB\..\..\..\ZMAIN\TI2530DB\"   #
#                          -I "H:\User\workplace\NISL_ZStack-CC2530-2.3.0-1.4 #
#                          .0\Projects\zstack\Samples\SampleApp--version      #
#                          1.0_2015.4.26\CC2530DB\..\..\..\..\..\COMPONENTS\M #
#                          T\" -I "H:\User\workplace\NISL_ZStack-CC2530-2.3.0 #
#                          -1.4.0\Projects\zstack\Samples\SampleApp--version  #
#                          1.0_2015.4.26\CC2530DB\..\..\..\..\..\COMPONENTS\H #
#                          AL\INCLUDE\" -I "H:\User\workplace\NISL_ZStack-CC2 #
#                          530-2.3.0-1.4.0\Projects\zstack\Samples\SampleApp- #
#                          -version 1.0_2015.4.26\CC2530DB\..\..\..\..\..\COM #
#                          PONENTS\HAL\TARGET\CC2530EB\" -I                   #
#                          "H:\User\workplace\NISL_ZStack-CC2530-2.3.0-1.4.0\ #
#                          Projects\zstack\Samples\SampleApp--version         #
#                          1.0_2015.4.26\CC2530DB\..\..\..\..\..\COMPONENTS\O #
#                          SAL\MCU\CCSOC\" -I "H:\User\workplace\NISL_ZStack- #
#                          CC2530-2.3.0-1.4.0\Projects\zstack\Samples\SampleA #
#                          pp--version 1.0_2015.4.26\CC2530DB\..\..\..\..\..\ #
#                          COMPONENTS\OSAL\INCLUDE\" -I                       #
#                          "H:\User\workplace\NISL_ZStack-CC2530-2.3.0-1.4.0\ #
#                          Projects\zstack\Samples\SampleApp--version         #
#                          1.0_2015.4.26\CC2530DB\..\..\..\..\..\COMPONENTS\S #
#                          TACK\AF\" -I "H:\User\workplace\NISL_ZStack-CC2530 #
#                          -2.3.0-1.4.0\Projects\zstack\Samples\SampleApp--ve #
#                          rsion 1.0_2015.4.26\CC2530DB\..\..\..\..\..\COMPON #
#                          ENTS\STACK\NWK\" -I "H:\User\workplace\NISL_ZStack #
#                          -CC2530-2.3.0-1.4.0\Projects\zstack\Samples\Sample #
#                          App--version 1.0_2015.4.26\CC2530DB\..\..\..\..\.. #
#                          \COMPONENTS\STACK\SEC\" -I                         #
#                          "H:\User\workplace\NISL_ZStack-CC2530-2.3.0-1.4.0\ #
#                          Projects\zstack\Samples\SampleApp--version         #
#                          1.0_2015.4.26\CC2530DB\..\..\..\..\..\COMPONENTS\S #
#                          TACK\SAPI\" -I "H:\User\workplace\NISL_ZStack-CC25 #
#                          30-2.3.0-1.4.0\Projects\zstack\Samples\SampleApp-- #
#                          version 1.0_2015.4.26\CC2530DB\..\..\..\..\..\COMP #
#                          ONENTS\STACK\SYS\" -I "H:\User\workplace\NISL_ZSta #
#                          ck-CC2530-2.3.0-1.4.0\Projects\zstack\Samples\Samp #
#                          leApp--version 1.0_2015.4.26\CC2530DB\..\..\..\..\ #
#                          ..\COMPONENTS\STACK\ZDO\" -I                       #
#                          "H:\User\workplace\NISL_ZStack-CC2530-2.3.0-1.4.0\ #
#                          Projects\zstack\Samples\SampleApp--version         #
#                          1.0_2015.4.26\CC2530DB\..\..\..\..\..\COMPONENTS\Z #
#                          MAC\F8W\" -I "H:\User\workplace\NISL_ZStack-CC2530 #
#                          -2.3.0-1.4.0\Projects\zstack\Samples\SampleApp--ve #
#                          rsion 1.0_2015.4.26\CC2530DB\..\..\..\..\..\COMPON #
#                          ENTS\ZMAC\" -I "H:\User\workplace\NISL_ZStack-CC25 #
#                          30-2.3.0-1.4.0\Projects\zstack\Samples\SampleApp-- #
#                          version 1.0_2015.4.26\CC2530DB\..\..\..\..\..\COMP #
#                          ONENTS\SERVICES\SADDR\" -I                         #
#                          "H:\User\workplace\NISL_ZStack-CC2530-2.3.0-1.4.0\ #
#                          Projects\zstack\Samples\SampleApp--version         #
#                          1.0_2015.4.26\CC2530DB\..\..\..\..\..\COMPONENTS\S #
#                          ERVICES\SDATA\" -I "H:\User\workplace\NISL_ZStack- #
#                          CC2530-2.3.0-1.4.0\Projects\zstack\Samples\SampleA #
#                          pp--version 1.0_2015.4.26\CC2530DB\..\..\..\..\..\ #
#                          COMPONENTS\MAC\INCLUDE\" -I                        #
#                          "H:\User\workplace\NISL_ZStack-CC2530-2.3.0-1.4.0\ #
#                          Projects\zstack\Samples\SampleApp--version         #
#                          1.0_2015.4.26\CC2530DB\..\..\..\..\..\COMPONENTS\M #
#                          AC\HIGH_LEVEL\" -I "H:\User\workplace\NISL_ZStack- #
#                          CC2530-2.3.0-1.4.0\Projects\zstack\Samples\SampleA #
#                          pp--version 1.0_2015.4.26\CC2530DB\..\..\..\..\..\ #
#                          COMPONENTS\MAC\LOW_LEVEL\srf04\" -I                #
#                          "H:\User\workplace\NISL_ZStack-CC2530-2.3.0-1.4.0\ #
#                          Projects\zstack\Samples\SampleApp--version         #
#                          1.0_2015.4.26\CC2530DB\..\..\..\..\..\COMPONENTS\M #
#                          AC\LOW_LEVEL\srf04\SINGLE_CHIP\" -Ohz              #
#                          --require_prototypes                               #
#    List file          =  H:\User\workplace\NISL_ZStack-CC2530-2.3.0-1.4.0\P #
#                          rojects\zstack\Samples\SampleApp--version          #
#                          1.0_2015.4.26\CC2530DB\EndDeviceEB-Pro\List\Sample #
#                          App.lst                                            #
#    Object file        =  H:\User\workplace\NISL_ZStack-CC2530-2.3.0-1.4.0\P #
#                          rojects\zstack\Samples\SampleApp--version          #
#                          1.0_2015.4.26\CC2530DB\EndDeviceEB-Pro\Obj\SampleA #
#                          pp.r51                                             #
#                                                                             #
#                                                                             #
###############################################################################

H:\User\workplace\NISL_ZStack-CC2530-2.3.0-1.4.0\Projects\zstack\Samples\SampleApp--version 1.0_2015.4.26\Source\SampleApp.c
      1          /**************************************************************************************************
      2            Filename:       SampleApp.c
      3            Revised:        $Date: 2009-03-18 15:56:27 -0700 (Wed, 18 Mar 2009) $
      4            Revision:       $Revision: 19453 $
      5          
      6            Description:    Sample Application (no Profile).
      7          
      8          
      9            Copyright 2007 Texas Instruments Incorporated. All rights reserved.
     10          
     11            IMPORTANT: Your use of this Software is limited to those specific rights
     12            granted under the terms of a software license agreement between the user
     13            who downloaded the software, his/her employer (which must be your employer)
     14            and Texas Instruments Incorporated (the "License").  You may not use this
     15            Software unless you agree to abide by the terms of the License. The License
     16            limits your use, and you acknowledge, that the Software may not be modified,
     17            copied or distributed unless embedded on a Texas Instruments microcontroller
     18            or used solely and exclusively in conjunction with a Texas Instruments radio
     19            frequency transceiver, which is integrated into your product.  Other than for
     20            the foregoing purpose, you may not use, reproduce, copy, prepare derivative
     21            works of, modify, distribute, perform, display or sell this Software and/or
     22            its documentation for any purpose.
     23          
     24            YOU FURTHER ACKNOWLEDGE AND AGREE THAT THE SOFTWARE AND DOCUMENTATION ARE
     25            PROVIDED AS IS?WITHOUT WARRANTY OF ANY KIND, EITHER EXPRESS OR IMPLIED,
     26            INCLUDING WITHOUT LIMITATION, ANY WARRANTY OF MERCHANTABILITY, TITLE,
     27            NON-INFRINGEMENT AND FITNESS FOR A PARTICULAR PURPOSE. IN NO EVENT SHALL
     28            TEXAS INSTRUMENTS OR ITS LICENSORS BE LIABLE OR OBLIGATED UNDER CONTRACT,
     29            NEGLIGENCE, STRICT LIABILITY, CONTRIBUTION, BREACH OF WARRANTY, OR OTHER
     30            LEGAL EQUITABLE THEORY ANY DIRECT OR INDIRECT DAMAGES OR EXPENSES
     31            INCLUDING BUT NOT LIMITED TO ANY INCIDENTAL, SPECIAL, INDIRECT, PUNITIVE
     32            OR CONSEQUENTIAL DAMAGES, LOST PROFITS OR LOST DATA, COST OF PROCUREMENT
     33            OF SUBSTITUTE GOODS, TECHNOLOGY, SERVICES, OR ANY CLAIMS BY THIRD PARTIES
     34            (INCLUDING BUT NOT LIMITED TO ANY DEFENSE THEREOF), OR OTHER SIMILAR COSTS.
     35          
     36            Should you have any questions regarding your right to use this Software,
     37            contact Texas Instruments Incorporated at www.TI.com.
     38          **************************************************************************************************/
     39          
     40          /*********************************************************************
     41            This application isn't intended to do anything useful, it is
     42            intended to be a simple example of an application's structure.
     43          
     44            This application sends it's messages either as broadcast or
     45            broadcast filtered group messages.  The other (more normal)
     46            message addressing is unicast.  Most of the other sample
     47            applications are written to support the unicast message model.
     48          
     49            Key control:
     50              SW1:  Sends a flash command to all devices in Group 1.
     51              SW2:  Adds/Removes (toggles) this device in and out
     52                    of Group 1.  This will enable and disable the
     53                    reception of the flash command.
     54          *********************************************************************/
     55          
     56          /*********************************************************************
     57           * INCLUDES
     58           */
     59          #include <stdio.h>
     60          #include <string.h>
     61          #include "OSAL.h"
     62          #include "ZGlobals.h"
     63          #include "AF.h"
     64          #include "aps_groups.h"
     65          #include "ZDApp.h"
     66          
     67          #include "SampleApp.h"
     68          #include "SampleAppHw.h"
     69          
     70          #include "OnBoard.h"
     71          
     72          /* HAL */
     73          #include "hal_lcd.h"
     74          #include "hal_led.h"
     75          #include "hal_key.h"
     76          #include "MT_UART.h"
     77          #include "MT_APP.h"
     78          #include "MT.h"
     79          
     80          #include "OSAL_PwrMgr.h"//lxy添加
     81          /*********************************************************************
     82           * MACROS
     83           */
     84          
     85          /*********************************************************************
     86           * CONSTANTS
     87           */
     88          
     89          #if !defined( SERIAL_APP_TX_MAX )
     90          #define SERIAL_APP_TX_MAX  80
     91          #endif
     92          
     93          
     94          /*********************************************************************
     95           * TYPEDEFS
     96           */
     97          
     98          /*********************************************************************
     99           * GLOBAL VARIABLES
    100           */
    101          
    102          // This list should be filled with Application specific Cluster IDs.

   \                                 In  segment XDATA_ROM_C, align 1
    103          const cId_t SampleApp_ClusterList[SAMPLEAPP_MAX_CLUSTERS] =
   \                     SampleApp_ClusterList:
   \   000000   0100         DW 1
   \   000002   0200         DW 2
    104          {
    105            SAMPLEAPP_PERIODIC_CLUSTERID,
    106            SAMPLEAPP_FLASH_CLUSTERID
    107          };
    108          

   \                                 In  segment XDATA_ROM_C, align 1
    109          const SimpleDescriptionFormat_t SampleApp_SimpleDesc =
   \                     SampleApp_SimpleDesc:
   \   000000   14           DB 20
   \   000001   080F         DW 3848
   \   000003   0100         DW 1
   \   000005   00           DB 0
   \   000006   02           DB 2
   \   000007   ....         DW SampleApp_ClusterList
   \   000009   02           DB 2
   \   00000A   ....         DW SampleApp_ClusterList
    110          {
    111            SAMPLEAPP_ENDPOINT,              //  int Endpoint;
    112            SAMPLEAPP_PROFID,                //  uint16 AppProfId[2];
    113            SAMPLEAPP_DEVICEID,              //  uint16 AppDeviceId[2];
    114            SAMPLEAPP_DEVICE_VERSION,        //  int   AppDevVer:4;
    115            SAMPLEAPP_FLAGS,                 //  int   AppFlags:4;
    116            SAMPLEAPP_MAX_CLUSTERS,          //  uint8  AppNumInClusters;
    117            (cId_t *)SampleApp_ClusterList,  //  uint8 *pAppInClusterList;
    118            SAMPLEAPP_MAX_CLUSTERS,          //  uint8  AppNumInClusters;
    119            (cId_t *)SampleApp_ClusterList   //  uint8 *pAppInClusterList;
    120          };
    121          
    122          // This is the Endpoint/Interface description.  It is defined here, but
    123          // filled-in in SampleApp_Init().  Another way to go would be to fill
    124          // in the structure here and make it a "const" (in code space).  The
    125          // way it's defined in this sample app it is define in RAM.

   \                                 In  segment XDATA_Z, align 1, keep-with-next
    126          endPointDesc_t SampleApp_epDesc;
   \                     SampleApp_epDesc:
   \   000000                DS 6
   \   000006                REQUIRE __INIT_XDATA_Z
    127          
    128          /*********************************************************************
    129           * EXTERNAL VARIABLES
    130           */
    131          
    132          /*********************************************************************
    133           * EXTERNAL FUNCTIONS
    134           */
    135          
    136          /*********************************************************************
    137           * LOCAL VARIABLES
    138           */

   \                                 In  segment XDATA_Z, align 1, keep-with-next
    139          uint8 SampleApp_TaskID;   // Task ID for internal task/event processing
   \                     SampleApp_TaskID:
   \   000000                DS 1
   \   000001                REQUIRE __INIT_XDATA_Z
    140                                    // This variable will be received when
    141                                    // SampleApp_Init() is called.
    142          

   \                                 In  segment XDATA_Z, align 1, keep-with-next
    143          devStates_t SampleApp_NwkState;
   \                     SampleApp_NwkState:
   \   000000                DS 1
   \   000001                REQUIRE __INIT_XDATA_Z
    144          

   \                                 In  segment XDATA_Z, align 1, keep-with-next
    145          uint8 SampleApp_TransID;  // This is the unique message ID (counter)
   \                     SampleApp_TransID:
   \   000000                DS 1
   \   000001                REQUIRE __INIT_XDATA_Z
    146          

   \                                 In  segment XDATA_Z, align 1, keep-with-next
    147          afAddrType_t SampleApp_Periodic_DstAddr;
   \                     SampleApp_Periodic_DstAddr:
   \   000000                DS 12
   \   00000C                REQUIRE __INIT_XDATA_Z

   \                                 In  segment XDATA_Z, align 1, keep-with-next
    148          afAddrType_t SampleApp_Flash_DstAddr;
   \                     SampleApp_Flash_DstAddr:
   \   000000                DS 12
   \   00000C                REQUIRE __INIT_XDATA_Z
    149          

   \                                 In  segment XDATA_Z, align 1, keep-with-next
    150          aps_Group_t SampleApp_Group;
   \                     SampleApp_Group:
   \   000000                DS 18
   \   000012                REQUIRE __INIT_XDATA_Z
    151          

   \                                 In  segment XDATA_Z, align 1, keep-with-next
    152          uint8 SampleAppPeriodicCounter = 0;
   \                     SampleAppPeriodicCounter:
   \   000000                DS 1
   \   000001                REQUIRE __INIT_XDATA_Z

   \                                 In  segment XDATA_Z, align 1, keep-with-next
    153          uint8 SampleAppFlashCounter = 0;
   \                     SampleAppFlashCounter:
   \   000000                DS 1
   \   000001                REQUIRE __INIT_XDATA_Z
    154          

   \                                 In  segment XDATA_Z, align 1, keep-with-next
    155          uint8 ZLC_Count = 0;          // Lichao Zhang define 
   \                     ZLC_Count:
   \   000000                DS 1
   \   000001                REQUIRE __INIT_XDATA_Z

   \                                 In  segment XDATA_Z, align 1, keep-with-next
    156          int flag = 0;
   \                     flag:
   \   000000                DS 2
   \   000002                REQUIRE __INIT_XDATA_Z

   \                                 In  segment XDATA_Z, align 1, keep-with-next
    157          int flagUart = 0;
   \                     flagUart:
   \   000000                DS 2
   \   000002                REQUIRE __INIT_XDATA_Z
    158          

   \                                 In  segment XDATA_Z, align 1, keep-with-next
    159          static uint8 SerialApp_TxLen;
   \                     SerialApp_TxLen:
   \   000000                DS 1
   \   000001                REQUIRE __INIT_XDATA_Z

   \                                 In  segment XDATA_Z, align 1, keep-with-next
    160          static uint8 SerialApp_TxBuf[SERIAL_APP_TX_MAX+1];
   \                     SerialApp_TxBuf:
   \   000000                DS 81
   \   000051                REQUIRE __INIT_XDATA_Z
    161          /*********************************************************************
    162           * LOCAL FUNCTIONS
    163           */
    164          void SampleApp_HandleKeys( uint8 shift, uint8 keys );
    165          void SampleApp_MessageMSGCB( afIncomingMSGPacket_t *pckt );
    166          void SampleApp_SendPeriodicMessage( void );
    167          //void SampleApp_SendFlashMessage( uint16 flashTime );
    168          void SampleApp_SerialCMD(mtOSALSerialData_t *cmdMsg);
    169          
    170          //int SampleApp_DeviceConnect(void);
    171          
    172          static int GetUARTValue(void);
    173          
    174          /*********************************************************************
    175           * NETWORK LAYER CALLBACKS
    176           */
    177          
    178          /*********************************************************************
    179           * PUBLIC FUNCTIONS
    180           */
    181          
    182          /*********************************************************************
    183           * @fn      SampleApp_Init
    184           *
    185           * @brief   Initialization function for the Generic App Task.
    186           *          This is called during initialization and should contain
    187           *          any application specific initialization (ie. hardware
    188           *          initialization/setup, table initialization, power up
    189           *          notificaiton ... ).
    190           *
    191           * @param   task_id - the ID assigned by OSAL.  This ID should be
    192           *                    used to send messages and set timers.
    193           *
    194           * @return  none
    195           */
    196          extern void osal_pwrmgr_device(uint8 pwrmgr_device);
    197          extern uint8 osal_pwrmgr_task_state( uint8 task_id, uint8 state );//兰轩宇添加
    198          

   \                                 In  segment BANKED_CODE, align 1, keep-with-next
    199          void SampleApp_Init( uint8 task_id )
   \                     SampleApp_Init:
    200          { 
   \   000000   74F5         MOV     A,#-0xb
   \   000002   12....       LCALL   ?BANKED_ENTER_XDATA
   \   000005                ; Saved register size: 11
   \   000005                ; Auto size: 0
   \   000005   E9           MOV     A,R1
   \   000006   FE           MOV     R6,A
    201            SampleApp_TaskID = task_id;
   \   000007   90....       MOV     DPTR,#SampleApp_TaskID
   \   00000A   F0           MOVX    @DPTR,A
    202            SampleApp_NwkState = DEV_INIT;
   \   00000B   90....       MOV     DPTR,#SampleApp_NwkState
   \   00000E   7401         MOV     A,#0x1
   \   000010   F0           MOVX    @DPTR,A
    203            SampleApp_TransID = 0;
   \   000011   90....       MOV     DPTR,#SampleApp_TransID
   \   000014   E4           CLR     A
   \   000015   F0           MOVX    @DPTR,A
    204            
    205            osal_pwrmgr_task_state(task_id,PWRMGR_CONSERVE);//lxy添加
   \   000016                ; Setup parameters for call to function osal_pwrmgr_task_state
   \   000016   FA           MOV     R2,A
   \   000017   12....       LCALL   ??osal_pwrmgr_task_state?relay
    206            
    207            MT_UartInit();                  //串口初始化
   \   00001A                ; Setup parameters for call to function MT_UartInit
   \   00001A   12....       LCALL   ??MT_UartInit?relay
    208            MT_UartRegisterTaskID(task_id); //注册串口任务
   \   00001D                ; Setup parameters for call to function MT_UartRegisterTaskID
   \   00001D   EE           MOV     A,R6
   \   00001E   F9           MOV     R1,A
   \   00001F   12....       LCALL   ??MT_UartRegisterTaskID?relay
    209          
    210            
    211            // Device hardware initialization can be added here or in main() (Zmain.c).
    212            // If the hardware is application specific - add it here.
    213            // If the hardware is other parts of the device add it in main().
    214          
    215           #if defined ( BUILD_ALL_DEVICES )
    216            // The "Demo" target is setup to have BUILD_ALL_DEVICES and HOLD_AUTO_START
    217            // We are looking at a jumper (defined in SampleAppHw.c) to be jumpered
    218            // together - if they are - we will start up a coordinator. Otherwise,
    219            // the device will start as a router.
    220            if ( readCoordinatorJumper() )
    221              zgDeviceLogicalType = ZG_DEVICETYPE_COORDINATOR;
    222            else
    223              zgDeviceLogicalType = ZG_DEVICETYPE_ROUTER;
    224          #endif // BUILD_ALL_DEVICES
    225          
    226          #if defined ( HOLD_AUTO_START )
    227            // HOLD_AUTO_START is a compile option that will surpress ZDApp
    228            //  from starting the device and wait for the application to
    229            //  start the device.
    230            ZDOInitDevice(0);
    231          #endif
    232          
    233            // Setup for the periodic message's destination address
    234            // Broadcast to everyone
    235            SampleApp_Periodic_DstAddr.addrMode = (afAddrMode_t)AddrBroadcast;
   \   000022   90....       MOV     DPTR,#SampleApp_Periodic_DstAddr + 8
   \   000025   740F         MOV     A,#0xf
   \   000027   F0           MOVX    @DPTR,A
    236            SampleApp_Periodic_DstAddr.endPoint = SAMPLEAPP_ENDPOINT;
   \   000028   A3           INC     DPTR
   \   000029   7414         MOV     A,#0x14
   \   00002B   F0           MOVX    @DPTR,A
    237            SampleApp_Periodic_DstAddr.addr.shortAddr = 0xFFFF;
   \   00002C   90....       MOV     DPTR,#SampleApp_Periodic_DstAddr
   \   00002F   74FF         MOV     A,#-0x1
   \   000031   F0           MOVX    @DPTR,A
   \   000032   A3           INC     DPTR
   \   000033   F0           MOVX    @DPTR,A
    238          
    239            // Setup for the flash command's destination address - Group 1
    240            SampleApp_Flash_DstAddr.addrMode = (afAddrMode_t)afAddrGroup;
   \   000034   90....       MOV     DPTR,#SampleApp_Flash_DstAddr + 8
   \   000037   7401         MOV     A,#0x1
   \   000039   F0           MOVX    @DPTR,A
    241            SampleApp_Flash_DstAddr.endPoint = SAMPLEAPP_ENDPOINT;
   \   00003A   A3           INC     DPTR
   \   00003B   7414         MOV     A,#0x14
   \   00003D   F0           MOVX    @DPTR,A
    242            SampleApp_Flash_DstAddr.addr.shortAddr = SAMPLEAPP_FLASH_GROUP;
   \   00003E   90....       MOV     DPTR,#SampleApp_Flash_DstAddr
   \   000041   7401         MOV     A,#0x1
   \   000043   F0           MOVX    @DPTR,A
   \   000044   A3           INC     DPTR
   \   000045   E4           CLR     A
   \   000046   F0           MOVX    @DPTR,A
    243          
    244            // Fill out the endpoint description.
    245            SampleApp_epDesc.endPoint = SAMPLEAPP_ENDPOINT;
   \   000047   90....       MOV     DPTR,#SampleApp_epDesc
   \   00004A   7414         MOV     A,#0x14
   \   00004C   F0           MOVX    @DPTR,A
    246            SampleApp_epDesc.task_id = &SampleApp_TaskID;
   \   00004D   A3           INC     DPTR
   \   00004E   74..         MOV     A,#SampleApp_TaskID & 0xff
   \   000050   F0           MOVX    @DPTR,A
   \   000051   A3           INC     DPTR
   \   000052   74..         MOV     A,#(SampleApp_TaskID >> 8) & 0xff
   \   000054   F0           MOVX    @DPTR,A
    247            SampleApp_epDesc.simpleDesc
    248                      = (SimpleDescriptionFormat_t *)&SampleApp_SimpleDesc;
   \   000055   A3           INC     DPTR
   \   000056   74..         MOV     A,#SampleApp_SimpleDesc & 0xff
   \   000058   F0           MOVX    @DPTR,A
   \   000059   A3           INC     DPTR
   \   00005A   74..         MOV     A,#(SampleApp_SimpleDesc >> 8) & 0xff
   \   00005C   F0           MOVX    @DPTR,A
    249            SampleApp_epDesc.latencyReq = noLatencyReqs;
   \   00005D   A3           INC     DPTR
   \   00005E   E4           CLR     A
   \   00005F   F0           MOVX    @DPTR,A
    250          
    251            // Register the endpoint description with the AF
    252            afRegister( &SampleApp_epDesc );
   \   000060                ; Setup parameters for call to function afRegister
   \   000060   7A..         MOV     R2,#SampleApp_epDesc & 0xff
   \   000062   7B..         MOV     R3,#(SampleApp_epDesc >> 8) & 0xff
   \   000064   12....       LCALL   ??afRegister?relay
    253          
    254            // Register for all key events - This app will handle all key events
    255            RegisterForKeys( SampleApp_TaskID );
   \   000067                ; Setup parameters for call to function RegisterForKeys
   \   000067   90....       MOV     DPTR,#SampleApp_TaskID
   \   00006A   E0           MOVX    A,@DPTR
   \   00006B   F9           MOV     R1,A
   \   00006C   12....       LCALL   ??RegisterForKeys?relay
    256          
    257            // By default, all devices start out in Group 1
    258            SampleApp_Group.ID = 0x0001;
   \   00006F   90....       MOV     DPTR,#SampleApp_Group
   \   000072   7401         MOV     A,#0x1
   \   000074   F0           MOVX    @DPTR,A
   \   000075   A3           INC     DPTR
   \   000076   E4           CLR     A
   \   000077   F0           MOVX    @DPTR,A
    259            osal_memcpy( SampleApp_Group.name, "Group 1", 7 );
   \   000078                ; Setup parameters for call to function osal_memcpy
   \   000078   75....       MOV     ?V0 + 0,#`?<Constant "Group 1">` & 0xff
   \   00007B   75....       MOV     ?V0 + 1,#(`?<Constant "Group 1">` >> 8) & 0xff
   \   00007E   F5..         MOV     ?V0 + 2,A
   \   000080   78..         MOV     R0,#?V0 + 0
   \   000082   12....       LCALL   ?PUSH_XSTACK_I_THREE
   \   000085   7C07         MOV     R4,#0x7
   \   000087   7D00         MOV     R5,#0x0
   \   000089   7A..         MOV     R2,#(SampleApp_Group + 2) & 0xff
   \   00008B   7B..         MOV     R3,#((SampleApp_Group + 2) >> 8) & 0xff
   \   00008D   12....       LCALL   ??osal_memcpy?relay
   \   000090   7403         MOV     A,#0x3
   \   000092   12....       LCALL   ?DEALLOC_XSTACK8
    260            aps_AddGroup( SAMPLEAPP_ENDPOINT, &SampleApp_Group );
   \   000095                ; Setup parameters for call to function aps_AddGroup
   \   000095   7A..         MOV     R2,#SampleApp_Group & 0xff
   \   000097   7B..         MOV     R3,#(SampleApp_Group >> 8) & 0xff
   \   000099   7914         MOV     R1,#0x14
   \   00009B   12....       LCALL   ??aps_AddGroup?relay
    261            
    262            ZDO_RegisterForZDOMsg( SampleApp_TaskID, End_Device_Bind_rsp );
   \   00009E                ; Setup parameters for call to function ZDO_RegisterForZDOMsg
   \   00009E   7A20         MOV     R2,#0x20
   \   0000A0   7B80         MOV     R3,#-0x80
   \   0000A2   90....       MOV     DPTR,#SampleApp_TaskID
   \   0000A5   E0           MOVX    A,@DPTR
   \   0000A6   F9           MOV     R1,A
   \   0000A7   12....       LCALL   ??ZDO_RegisterForZDOMsg?relay
    263            ZDO_RegisterForZDOMsg( SampleApp_TaskID, Match_Desc_rsp );
   \   0000AA                ; Setup parameters for call to function ZDO_RegisterForZDOMsg
   \   0000AA   7A06         MOV     R2,#0x6
   \   0000AC   7B80         MOV     R3,#-0x80
   \   0000AE   90....       MOV     DPTR,#SampleApp_TaskID
   \   0000B1   E0           MOVX    A,@DPTR
   \   0000B2   F9           MOV     R1,A
   \   0000B3   12....       LCALL   ??ZDO_RegisterForZDOMsg?relay
    264          
    265          #if defined ( LCD_SUPPORTED )
    266            HalLcdWriteString( "SampleApp", HAL_LCD_LINE_1 );
   \   0000B6                ; Setup parameters for call to function HalLcdWriteString
   \   0000B6   7901         MOV     R1,#0x1
   \   0000B8   7A..         MOV     R2,#`?<Constant "SampleApp">` & 0xff
   \   0000BA   7B..         MOV     R3,#(`?<Constant "SampleApp">` >> 8) & 0xff
   \   0000BC   12....       LCALL   ??HalLcdWriteString?relay
    267          #endif
    268          }
   \   0000BF   7F03         MOV     R7,#0x3
   \   0000C1   02....       LJMP    ?BANKED_LEAVE_XDATA
    269          
    270          /*********************************************************************
    271           * @fn      SampleApp_ProcessEvent
    272           *
    273           * @brief   Generic Application Task event processor.  This function
    274           *          is called to process all events for the task.  Events
    275           *          include timers, messages and any other user defined events.
    276           *
    277           * @param   task_id  - The OSAL assigned task ID.
    278           * @param   events - events to process.  This is a bit map and can
    279           *                   contain more than one event.
    280           *
    281           * @return  none
    282           */

   \                                 In  segment BANKED_CODE, align 1, keep-with-next
    283          uint16 SampleApp_ProcessEvent( uint8 task_id, uint16 events )
   \                     SampleApp_ProcessEvent:
    284          {
   \   000000   74F4         MOV     A,#-0xc
   \   000002   12....       LCALL   ?BANKED_ENTER_XDATA
   \   000005                ; Saved register size: 12
   \   000005                ; Auto size: 0
   \   000005   EA           MOV     A,R2
   \   000006   FE           MOV     R6,A
   \   000007   EB           MOV     A,R3
   \   000008   FF           MOV     R7,A
    285            afIncomingMSGPacket_t *MSGpkt;
    286            
    287            //Defined by Lichao Zhang
    288          //  uint8 timerIdNISL;
    289          //  uint32 timePerTickNISL;
    290             
    291            (void)task_id;  // Intentionally unreferenced parameter
    292            
    293          
    294            if ( events & SYS_EVENT_MSG )
   \   000009   5480         ANL     A,#0x80
   \   00000B   6074         JZ      ??SampleApp_ProcessEvent_0
    295            {
    296              MSGpkt = (afIncomingMSGPacket_t *)osal_msg_receive( SampleApp_TaskID );
   \   00000D                ; Setup parameters for call to function osal_msg_receive
   \   00000D   8026         SJMP    ??SampleApp_ProcessEvent_1
    297              //ZLC_Count++;     //Lichao Zhang define
    298              while ( MSGpkt )
    299              {
    300                switch ( MSGpkt->hdr.event )
    301                {        
    302                  // Received when a key is pressed
    303                  case KEY_CHANGE:
    304                    SampleApp_HandleKeys( ((keyChange_t *)MSGpkt)->state, ((keyChange_t *)MSGpkt)->keys );
    305                    break;
    306          
    307                  // Received when a messages is received (OTA) for this endpoint
    308                  case AF_INCOMING_MSG_CMD:
    309                    SampleApp_MessageMSGCB( MSGpkt );
    310                    break;
    311          
    312                  // Received whenever the device changes state in the network
    313                  case ZDO_STATE_CHANGE:
    314                    SampleApp_NwkState = (devStates_t)(MSGpkt->hdr.status);
   \                     ??SampleApp_ProcessEvent_2:
   \   00000F   A3           INC     DPTR
   \   000010   E0           MOVX    A,@DPTR
   \   000011   90....       MOV     DPTR,#SampleApp_NwkState
   \   000014   F0           MOVX    @DPTR,A
    315                    if ( //(SampleApp_NwkState == DEV_ZB_COORD) ||
    316                           (SampleApp_NwkState == DEV_ROUTER)
    317                        || (SampleApp_NwkState == DEV_END_DEVICE) )
   \   000015   6407         XRL     A,#0x7
   \   000017   6005         JZ      ??SampleApp_ProcessEvent_3
   \   000019   E0           MOVX    A,@DPTR
   \   00001A   6406         XRL     A,#0x6
   \   00001C   7010         JNZ     ??SampleApp_ProcessEvent_4
    318                    {
    319                      // Start sending the periodic message in a regular interval.
    320                      osal_start_timerEx( SampleApp_TaskID,
    321                                        SAMPLEAPP_SEND_PERIODIC_MSG_EVT,
    322                                        SAMPLEAPP_SEND_PERIODIC_MSG_TIMEOUT );
   \                     ??SampleApp_ProcessEvent_3:
   \   00001E                ; Setup parameters for call to function osal_start_timerEx
   \   00001E   7CE8         MOV     R4,#-0x18
   \   000020   7D03         MOV     R5,#0x3
   \   000022   7A01         MOV     R2,#0x1
   \   000024   7B00         MOV     R3,#0x0
   \   000026   90....       MOV     DPTR,#SampleApp_TaskID
   \   000029   E0           MOVX    A,@DPTR
   \   00002A   F9           MOV     R1,A
   \   00002B   12....       LCALL   ??osal_start_timerEx?relay
    323          
    324                    }
    325                    else
    326                    {
    327                      // Device is no longer in the network
    328                    }
    329                    break;
    330          
    331                  default:
    332                    break;
    333                }
    334          
    335                // Release the memory
    336                osal_msg_deallocate( (uint8 *)MSGpkt );
   \                     ??SampleApp_ProcessEvent_4:
   \   00002E                ; Setup parameters for call to function osal_msg_deallocate
   \   00002E   AA..         MOV     R2,?V0 + 0
   \   000030   AB..         MOV     R3,?V0 + 1
   \   000032   12....       LCALL   ??osal_msg_deallocate?relay
    337          
    338                // Next - if one is available
    339                MSGpkt = (afIncomingMSGPacket_t *)osal_msg_receive( SampleApp_TaskID );
   \   000035                ; Setup parameters for call to function osal_msg_receive
   \                     ??SampleApp_ProcessEvent_1:
   \   000035   90....       MOV     DPTR,#SampleApp_TaskID
   \   000038   E0           MOVX    A,@DPTR
   \   000039   F9           MOV     R1,A
   \   00003A   12....       LCALL   ??osal_msg_receive?relay
   \   00003D   8A..         MOV     ?V0 + 0,R2
   \   00003F   8B..         MOV     ?V0 + 1,R3
   \   000041   E5..         MOV     A,?V0 + 0
   \   000043   45..         ORL     A,?V0 + 1
   \   000045   6032         JZ      ??SampleApp_ProcessEvent_5
   \   000047   85..82       MOV     DPL,?V0 + 0
   \   00004A   85..83       MOV     DPH,?V0 + 1
   \   00004D   E0           MOVX    A,@DPTR
   \   00004E   24E6         ADD     A,#-0x1a
   \   000050   601E         JZ      ??SampleApp_ProcessEvent_6
   \   000052   245A         ADD     A,#0x5a
   \   000054   6006         JZ      ??SampleApp_ProcessEvent_7
   \   000056   24EF         ADD     A,#-0x11
   \   000058   60B5         JZ      ??SampleApp_ProcessEvent_2
   \   00005A   80D2         SJMP    ??SampleApp_ProcessEvent_4
   \                     ??SampleApp_ProcessEvent_7:
   \   00005C                ; Setup parameters for call to function SampleApp_HandleKeys
   \   00005C   A3           INC     DPTR
   \   00005D   A3           INC     DPTR
   \   00005E   A3           INC     DPTR
   \   00005F   E0           MOVX    A,@DPTR
   \   000060   FA           MOV     R2,A
   \   000061   85..82       MOV     DPL,?V0 + 0
   \   000064   85..83       MOV     DPH,?V0 + 1
   \   000067   A3           INC     DPTR
   \   000068   A3           INC     DPTR
   \   000069   E0           MOVX    A,@DPTR
   \   00006A   F9           MOV     R1,A
   \   00006B   12....       LCALL   ??SampleApp_HandleKeys?relay
   \   00006E   80BE         SJMP    ??SampleApp_ProcessEvent_4
   \                     ??SampleApp_ProcessEvent_6:
   \   000070                ; Setup parameters for call to function SampleApp_MessageMSGCB
   \   000070   AA..         MOV     R2,?V0 + 0
   \   000072   AB..         MOV     R3,?V0 + 1
   \   000074   12....       LCALL   ??SampleApp_MessageMSGCB?relay
   \   000077   80B5         SJMP    ??SampleApp_ProcessEvent_4
    340              }
    341          
    342              // return unprocessed events
    343              return (events ^ SYS_EVENT_MSG);
   \                     ??SampleApp_ProcessEvent_5:
   \   000079   EE           MOV     A,R6
   \   00007A   FA           MOV     R2,A
   \   00007B   EF           MOV     A,R7
   \   00007C   6480         XRL     A,#0x80
   \                     ??SampleApp_ProcessEvent_8:
   \   00007E   FB           MOV     R3,A
   \   00007F   8051         SJMP    ??SampleApp_ProcessEvent_9
    344            }
    345          
    346            // Send a message out - This event is generated by a timer
    347            //  (setup in SampleApp_Init()).
    348            if ( events & SAMPLEAPP_SEND_PERIODIC_MSG_EVT )
   \                     ??SampleApp_ProcessEvent_0:
   \   000081   EE           MOV     A,R6
   \   000082   A2E0         MOV     C,0xE0 /* A   */.0
   \   000084   500A         JNC     ??SampleApp_ProcessEvent_10
    349            {
    350              // Send the periodic message
    351              SampleApp_SendPeriodicMessage();
   \   000086                ; Setup parameters for call to function SampleApp_SendPeriodicMessage
   \   000086   12....       LCALL   ??SampleApp_SendPeriodicMessage?relay
    352          
    353              // return unprocessed events
    354              return (events ^ SAMPLEAPP_SEND_PERIODIC_MSG_EVT);
   \   000089   EE           MOV     A,R6
   \   00008A   6401         XRL     A,#0x1
   \                     ??SampleApp_ProcessEvent_11:
   \   00008C   FA           MOV     R2,A
   \   00008D   EF           MOV     A,R7
   \   00008E   80EE         SJMP    ??SampleApp_ProcessEvent_8
    355            }
    356            
    357            //Defined by Lichao Zhang
    358            if ( events & NISL_ZLC_COUNT_EVT )
   \                     ??SampleApp_ProcessEvent_10:
   \   000090   5410         ANL     A,#0x10
   \   000092   603A         JZ      ??SampleApp_ProcessEvent_12
    359            {
    360              if(flag < 3)
   \   000094   90....       MOV     DPTR,#flag
   \   000097   C3           CLR     C
   \   000098   E0           MOVX    A,@DPTR
   \   000099   9403         SUBB    A,#0x3
   \   00009B   A3           INC     DPTR
   \   00009C   E0           MOVX    A,@DPTR
   \   00009D   9400         SUBB    A,#0x0
   \   00009F   A2D2         MOV     C,0xD0 /* PSW */.2
   \   0000A1   65D0         XRL     A,PSW
   \   0000A3   33           RLC     A
   \   0000A4   90....       MOV     DPTR,#flag
   \   0000A7   500E         JNC     ??SampleApp_ProcessEvent_13
    361              {
    362                flag++;
   \   0000A9   E0           MOVX    A,@DPTR
   \   0000AA   2401         ADD     A,#0x1
   \   0000AC   F0           MOVX    @DPTR,A
   \   0000AD   A3           INC     DPTR
   \   0000AE   E0           MOVX    A,@DPTR
   \   0000AF   3400         ADDC    A,#0x0
   \   0000B1   F0           MOVX    @DPTR,A
    363                osal_start_timerEx( SampleApp_TaskID, NISL_ZLC_COUNT_EVT,
    364                  (SAMPLEAPP_SEND_PERIODIC_MSG_TIMEOUT + (osal_rand() & 0x00FF)) );
   \   0000B2                ; Setup parameters for call to function osal_rand
   \   0000B2   12....       LCALL   ?Subroutine2 & 0xFFFF
    365              }
   \                     ??CrossCallReturnLabel_0:
   \   0000B5   8012         SJMP    ??SampleApp_ProcessEvent_14
    366              else
    367              {
    368                flag = 0;
   \                     ??SampleApp_ProcessEvent_13:
   \   0000B7   E4           CLR     A
   \   0000B8   F0           MOVX    @DPTR,A
   \   0000B9   A3           INC     DPTR
   \   0000BA   F0           MOVX    @DPTR,A
    369          //      osal_start_timerEx( SampleApp_TaskID,
    370          //                         SAMPLEAPP_SEND_PERIODIC_MSG_EVT,
    371          //                         SAMPLEAPP_SEND_PERIODIC_MSG_TIMEOUT );
    372                // Send the periodic message
    373                osal_stop_timerEx(SampleApp_TaskID, NISL_ZLC_COUNT_EVT);
   \   0000BB                ; Setup parameters for call to function osal_stop_timerEx
   \   0000BB   7A10         MOV     R2,#0x10
   \   0000BD   FB           MOV     R3,A
   \   0000BE   90....       MOV     DPTR,#SampleApp_TaskID
   \   0000C1   E0           MOVX    A,@DPTR
   \   0000C2   F9           MOV     R1,A
   \   0000C3   12....       LCALL   ??osal_stop_timerEx?relay
    374                SampleApp_SendPeriodicMessage();
   \   0000C6                ; Setup parameters for call to function SampleApp_SendPeriodicMessage
   \   0000C6   12....       LCALL   ??SampleApp_SendPeriodicMessage?relay
    375              }
    376              return (events ^ NISL_ZLC_COUNT_EVT);
   \                     ??SampleApp_ProcessEvent_14:
   \   0000C9   EE           MOV     A,R6
   \   0000CA   6410         XRL     A,#0x10
   \   0000CC   80BE         SJMP    ??SampleApp_ProcessEvent_11
    377            }
    378          
    379            // Discard unknown events
    380            return 0;
   \                     ??SampleApp_ProcessEvent_12:
   \   0000CE   7A00         MOV     R2,#0x0
   \   0000D0   7B00         MOV     R3,#0x0
   \                     ??SampleApp_ProcessEvent_9:
   \   0000D2                REQUIRE ?Subroutine0
   \   0000D2                ; // Fall through to label ?Subroutine0
    381          }

   \                                 In  segment BANKED_CODE, align 1, keep-with-next
   \                     ?Subroutine0:
   \   000000   7F04         MOV     R7,#0x4
   \   000002   02....       LJMP    ?BANKED_LEAVE_XDATA

   \                                 In  segment BANKED_CODE, align 1, keep-with-next
   \                     ?Subroutine2:
   \   000000   12....       LCALL   ??osal_rand?relay
   \   000003                ; Setup parameters for call to function osal_start_timerEx
   \   000003                ; Setup parameters for call to function osal_start_timerEx
   \   000003   EA           MOV     A,R2
   \   000004   24E8         ADD     A,#-0x18
   \   000006   FC           MOV     R4,A
   \   000007   E4           CLR     A
   \   000008   3403         ADDC    A,#0x3
   \   00000A   FD           MOV     R5,A
   \   00000B   7A10         MOV     R2,#0x10
   \   00000D   7B00         MOV     R3,#0x0
   \   00000F   90....       MOV     DPTR,#SampleApp_TaskID
   \   000012   E0           MOVX    A,@DPTR
   \   000013   F9           MOV     R1,A
   \   000014   12....       LCALL   ??osal_start_timerEx?relay
   \   000017   22           RET
    382          
    383          /*********************************************************************
    384           * Event Generation Functions
    385           */
    386          /*********************************************************************
    387           * @fn      SampleApp_HandleKeys
    388           *
    389           * @brief   Handles all key events for this device.
    390           *
    391           * @param   shift - true if in shift/alt.
    392           * @param   keys - bit field for key events. Valid entries:
    393           *                 HAL_KEY_SW_2
    394           *                 HAL_KEY_SW_1
    395           *
    396           * @return  none
    397           */

   \                                 In  segment BANKED_CODE, align 1, keep-with-next
    398          void SampleApp_HandleKeys( uint8 shift, uint8 keys )
   \                     SampleApp_HandleKeys:
    399          {
   \   000000   74F6         MOV     A,#-0xa
   \   000002   12....       LCALL   ?BANKED_ENTER_XDATA
   \   000005                ; Saved register size: 10
   \   000005                ; Auto size: 0
   \   000005   EA           MOV     A,R2
    400            (void)shift;  // Intentionally unreferenced parameter
    401            
    402            if ( keys & HAL_KEY_SW_1 )
    403            {
    404              /* This key sends the Flash Command is sent to Group 1.
    405               * This device will not receive the Flash Command from this
    406               * device (even if it belongs to group 1).
    407               */
    408          //    SampleApp_SendFlashMessage( SAMPLEAPP_FLASH_DURATION );
    409            }
    410          
    411            if ( keys & HAL_KEY_SW_2 )
   \   000006   A2E1         MOV     C,0xE0 /* A   */.1
   \   000008   5024         JNC     ??SampleApp_HandleKeys_0
    412            {
    413              /* The Flashr Command is sent to Group 1.
    414               * This key toggles this device in and out of group 1.
    415               * If this device doesn't belong to group 1, this application
    416               * will not receive the Flash command sent to group 1.
    417               */
    418              aps_Group_t *grp;
    419              grp = aps_FindGroup( SAMPLEAPP_ENDPOINT, SAMPLEAPP_FLASH_GROUP );
    420              if ( grp )
   \   00000A                ; Setup parameters for call to function aps_FindGroup
   \   00000A   7A01         MOV     R2,#0x1
   \   00000C   7B00         MOV     R3,#0x0
   \   00000E   7914         MOV     R1,#0x14
   \   000010   12....       LCALL   ??aps_FindGroup?relay
   \   000013   8B..         MOV     ?V0 + 1,R3
   \   000015   EA           MOV     A,R2
   \   000016   45..         ORL     A,?V0 + 1
   \   000018   600B         JZ      ??SampleApp_HandleKeys_1
    421              {
    422                // Remove from the group
    423                aps_RemoveGroup( SAMPLEAPP_ENDPOINT, SAMPLEAPP_FLASH_GROUP );
   \   00001A                ; Setup parameters for call to function aps_RemoveGroup
   \   00001A   7A01         MOV     R2,#0x1
   \   00001C   7B00         MOV     R3,#0x0
   \   00001E   7914         MOV     R1,#0x14
   \   000020   12....       LCALL   ??aps_RemoveGroup?relay
   \   000023   8009         SJMP    ??SampleApp_HandleKeys_0
    424              }
    425              else
    426              {
    427                // Add to the flash group
    428                aps_AddGroup( SAMPLEAPP_ENDPOINT, &SampleApp_Group );
   \                     ??SampleApp_HandleKeys_1:
   \   000025                ; Setup parameters for call to function aps_AddGroup
   \   000025   7A..         MOV     R2,#SampleApp_Group & 0xff
   \   000027   7B..         MOV     R3,#(SampleApp_Group >> 8) & 0xff
   \   000029   7914         MOV     R1,#0x14
   \   00002B   12....       LCALL   ??aps_AddGroup?relay
    429              }
    430            }
    431          }
   \                     ??SampleApp_HandleKeys_0:
   \   00002E                REQUIRE ?Subroutine1
   \   00002E                ; // Fall through to label ?Subroutine1

   \                                 In  segment BANKED_CODE, align 1, keep-with-next
   \                     ?Subroutine1:
   \   000000   7F02         MOV     R7,#0x2
   \   000002   02....       LJMP    ?BANKED_LEAVE_XDATA
    432          
    433          /*********************************************************************
    434           * LOCAL FUNCTIONS
    435           */
    436          
    437          /*********************************************************************
    438           * @fn      SampleApp_MessageMSGCB
    439           *
    440           * @brief   Data message processor callback.  This function processes
    441           *          any incoming data - probably from other devices.  So, based
    442           *          on cluster ID, perform the intended action.
    443           *
    444           * @param   none
    445           *
    446           * @return  none
    447           */

   \                                 In  segment BANKED_CODE, align 1, keep-with-next
    448          void SampleApp_MessageMSGCB( afIncomingMSGPacket_t *pkt ) //接收数据
   \                     SampleApp_MessageMSGCB:
    449          {
   \   000000   74F4         MOV     A,#-0xc
   \   000002   12....       LCALL   ?BANKED_ENTER_XDATA
   \   000005                ; Saved register size: 12
   \   000005                ; Auto size: 0
   \   000005   EA           MOV     A,R2
   \   000006   FE           MOV     R6,A
   \   000007   EB           MOV     A,R3
   \   000008   FF           MOV     R7,A
    450            uint16 flashTime;
    451          
    452            switch ( pkt->clusterId )
   \   000009   EE           MOV     A,R6
   \   00000A   2421         ADD     A,#0x21
   \   00000C   F5..         MOV     ?V0 + 0,A
   \   00000E   EF           MOV     A,R7
   \   00000F   3400         ADDC    A,#0x0
   \   000011   F5..         MOV     ?V0 + 1,A
   \   000013   8E82         MOV     DPL,R6
   \   000015   8F83         MOV     DPH,R7
   \   000017   A3           INC     DPTR
   \   000018   A3           INC     DPTR
   \   000019   A3           INC     DPTR
   \   00001A   A3           INC     DPTR
   \   00001B   E0           MOVX    A,@DPTR
   \   00001C   F5..         MOV     ?V0 + 2,A
   \   00001E   A3           INC     DPTR
   \   00001F   E0           MOVX    A,@DPTR
   \   000020   F5..         MOV     ?V0 + 3,A
   \   000022   78..         MOV     R0,#?V0 + 2
   \   000024   12....       LCALL   ?US_SWITCH_DENSE
   \                     `?<Jumptable for SampleApp_MessageMSGCB>_0`:
   \   000027   0100         DW        1
   \   000029   01           DB        1
   \   00002A   ....         DW        ??SampleApp_MessageMSGCB_0
   \   00002C   ....         DW        ??SampleApp_MessageMSGCB_1
   \   00002E   ....         DW        ??SampleApp_MessageMSGCB_2
    453            {
    454              case SAMPLEAPP_PERIODIC_CLUSTERID:
    455                HalUARTWrite(0, "Rx:", 3);        //提示信息
   \                     ??SampleApp_MessageMSGCB_1:
   \   000030                ; Setup parameters for call to function HalUARTWrite
   \   000030   7C03         MOV     R4,#0x3
   \   000032   7D00         MOV     R5,#0x0
   \   000034   7A..         MOV     R2,#`?<Constant "Rx:">` & 0xff
   \   000036   7B..         MOV     R3,#(`?<Constant "Rx:">` >> 8) & 0xff
   \   000038   7900         MOV     R1,#0x0
   \   00003A   12....       LCALL   ??HalUARTWrite?relay
    456                HalUARTWrite(0, pkt->cmd.Data, pkt->cmd.DataLength); //输出接收到的数据
   \   00003D                ; Setup parameters for call to function HalUARTWrite
   \   00003D   EE           MOV     A,R6
   \   00003E   241F         ADD     A,#0x1f
   \   000040   F582         MOV     DPL,A
   \   000042   EF           MOV     A,R7
   \   000043   3400         ADDC    A,#0x0
   \   000045   F583         MOV     DPH,A
   \   000047   E0           MOVX    A,@DPTR
   \   000048   FC           MOV     R4,A
   \   000049   A3           INC     DPTR
   \   00004A   E0           MOVX    A,@DPTR
   \   00004B   FD           MOV     R5,A
   \   00004C   85..82       MOV     DPL,?V0 + 0
   \   00004F   85..83       MOV     DPH,?V0 + 1
   \   000052   E0           MOVX    A,@DPTR
   \   000053   FA           MOV     R2,A
   \   000054   A3           INC     DPTR
   \   000055   E0           MOVX    A,@DPTR
   \   000056   FB           MOV     R3,A
   \   000057   7900         MOV     R1,#0x0
   \   000059   12....       LCALL   ??HalUARTWrite?relay
    457                HalUARTWrite(0, "\n", 1);         //回车换行
   \   00005C                ; Setup parameters for call to function HalUARTWrite
   \   00005C   7C01         MOV     R4,#0x1
   \   00005E   7D00         MOV     R5,#0x0
   \   000060   7A..         MOV     R2,#`?<Constant "\\n">` & 0xff
   \   000062   7B..         MOV     R3,#(`?<Constant "\\n">` >> 8) & 0xff
   \   000064   7900         MOV     R1,#0x0
   \   000066   12....       LCALL   ??HalUARTWrite?relay
    458                break;
   \   000069   8037         SJMP    ??SampleApp_MessageMSGCB_0
    459          
    460              case SAMPLEAPP_FLASH_CLUSTERID:     //此实验没有使用，到后面实验详解
    461                flashTime = BUILD_UINT16(pkt->cmd.Data[1], pkt->cmd.Data[2] );
    462                HalLedBlink( HAL_LED_4, 4, 50, (flashTime / 4) );
   \                     ??SampleApp_MessageMSGCB_2:
   \   00006B   85..82       MOV     DPL,?V0 + 0
   \   00006E   85..83       MOV     DPH,?V0 + 1
   \   000071   E0           MOVX    A,@DPTR
   \   000072   F8           MOV     R0,A
   \   000073   A3           INC     DPTR
   \   000074   E0           MOVX    A,@DPTR
   \   000075   F9           MOV     R1,A
   \   000076                ; Setup parameters for call to function HalLedBlink
   \   000076   8882         MOV     DPL,R0
   \   000078   8983         MOV     DPH,R1
   \   00007A   A3           INC     DPTR
   \   00007B   E0           MOVX    A,@DPTR
   \   00007C   FA           MOV     R2,A
   \   00007D   8882         MOV     DPL,R0
   \   00007F   8983         MOV     DPH,R1
   \   000081   A3           INC     DPTR
   \   000082   A3           INC     DPTR
   \   000083   E0           MOVX    A,@DPTR
   \   000084   F9           MOV     R1,A
   \   000085   EA           MOV     A,R2
   \   000086   2400         ADD     A,#0x0
   \   000088   F5..         MOV     ?V0 + 0,A
   \   00008A   E4           CLR     A
   \   00008B   39           ADDC    A,R1
   \   00008C   F5..         MOV     ?V0 + 1,A
   \   00008E   7402         MOV     A,#0x2
   \   000090   78..         MOV     R0,#?V0 + 0
   \   000092   12....       LCALL   ?US_SHR
   \   000095   AC..         MOV     R4,?V0 + 0
   \   000097   AD..         MOV     R5,?V0 + 1
   \   000099   7B32         MOV     R3,#0x32
   \   00009B   7A04         MOV     R2,#0x4
   \   00009D   7908         MOV     R1,#0x8
   \   00009F   12....       LCALL   ??HalLedBlink?relay
    463                break;
    464            }
    465          }
   \                     ??SampleApp_MessageMSGCB_0:
   \   0000A2   02....       LJMP    ?Subroutine0 & 0xFFFF
    466          
    467          /*********************************************************************
    468           * @fn      SampleApp_SendPeriodicMessage
    469           *
    470           * @brief   Send the periodic message.
    471           *
    472           * @param   none
    473           *
    474           * @return  none
    475           */

   \                                 In  segment BANKED_CODE, align 1, keep-with-next
    476          void SampleApp_SendPeriodicMessage( void )
   \                     SampleApp_SendPeriodicMessage:
    477          {
   \   000000   74F6         MOV     A,#-0xa
   \   000002   12....       LCALL   ?BANKED_ENTER_XDATA
   \   000005                ; Saved register size: 10
   \   000005                ; Auto size: 11
   \   000005   74F5         MOV     A,#-0xb
   \   000007   12....       LCALL   ?ALLOC_XSTACK8
    478            uint8 data[11]="0123456789";
   \   00000A   85..82       MOV     DPL,?XSP + 0
   \   00000D   85..83       MOV     DPH,?XSP + 1
   \   000010   AC82         MOV     R4,DPL
   \   000012   AD83         MOV     R5,DPH
   \   000014   7583..       MOV     DPH,#(`?<Constant "0123456789">` >> 8) & 0xff
   \   000017   7582..       MOV     DPL,#`?<Constant "0123456789">` & 0xff
   \   00001A   740B         MOV     A,#0xb
   \   00001C   12....       LCALL   ?MOVE_LONG8_XDATA_XDATA
    479            osal_pwrmgr_device(PWRMGR_ALWAYS_ON);
   \   00001F                ; Setup parameters for call to function osal_pwrmgr_device
   \   00001F   F9           MOV     R1,A
   \   000020   12....       LCALL   ??osal_pwrmgr_device?relay
    480            
    481            if(GetUARTValue())
   \   000023                ; Setup parameters for call to function GetUARTValue
   \   000023   12....       LCALL   ??GetUARTValue?relay
   \   000026   8B..         MOV     ?V0 + 1,R3
   \   000028   EA           MOV     A,R2
   \   000029   45..         ORL     A,?V0 + 1
   \   00002B   605A         JZ      ??CrossCallReturnLabel_1
    482            {
    483              //读取串口数据模块
    484              
    485              if ( AF_DataRequest( &SampleApp_Periodic_DstAddr, &SampleApp_epDesc,
    486                                 SAMPLEAPP_PERIODIC_CLUSTERID,
    487                                 10,
    488                                 data,
    489                                 &SampleApp_TransID,
    490                                 AF_DISCV_ROUTE,
    491                                 AF_DEFAULT_RADIUS ) == afStatus_SUCCESS )
   \   00002D                ; Setup parameters for call to function AF_DataRequest
   \   00002D   75..1E       MOV     ?V0 + 0,#0x1e
   \   000030   78..         MOV     R0,#?V0 + 0
   \   000032   12....       LCALL   ?PUSH_XSTACK_I_ONE
   \   000035   75....       MOV     ?V0 + 0,#SampleApp_TransID & 0xff
   \   000038   75....       MOV     ?V0 + 1,#(SampleApp_TransID >> 8) & 0xff
   \   00003B   78..         MOV     R0,#?V0 + 0
   \   00003D   12....       LCALL   ?PUSH_XSTACK_I_TWO
   \   000040   7403         MOV     A,#0x3
   \   000042   12....       LCALL   ?XSTACK_DISP0_8
   \   000045   8582..       MOV     ?V0 + 0,DPL
   \   000048   8583..       MOV     ?V0 + 1,DPH
   \   00004B   78..         MOV     R0,#?V0 + 0
   \   00004D   12....       LCALL   ?PUSH_XSTACK_I_TWO
   \   000050   75..0A       MOV     ?V0 + 0,#0xa
   \   000053   75..00       MOV     ?V0 + 1,#0x0
   \   000056   78..         MOV     R0,#?V0 + 0
   \   000058   12....       LCALL   ?PUSH_XSTACK_I_TWO
   \   00005B   75..01       MOV     ?V0 + 0,#0x1
   \   00005E   78..         MOV     R0,#?V0 + 0
   \   000060   12....       LCALL   ?PUSH_XSTACK_I_TWO
   \   000063   7920         MOV     R1,#0x20
   \   000065   7C..         MOV     R4,#SampleApp_epDesc & 0xff
   \   000067   7D..         MOV     R5,#(SampleApp_epDesc >> 8) & 0xff
   \   000069   7A..         MOV     R2,#SampleApp_Periodic_DstAddr & 0xff
   \   00006B   7B..         MOV     R3,#(SampleApp_Periodic_DstAddr >> 8) & 0xff
   \   00006D   12....       LCALL   ??AF_DataRequest?relay
   \   000070   7409         MOV     A,#0x9
   \   000072   12....       LCALL   ?DEALLOC_XSTACK8
   \   000075   E9           MOV     A,R1
   \   000076   7007         JNZ     ??SampleApp_SendPeriodicMessage_0
    492              {//张立超添加 
    493                HalLedSet (HAL_LED_2, HAL_LED_MODE_TOGGLE);   //设置灯状态
   \   000078                ; Setup parameters for call to function HalLedSet
   \   000078   7A08         MOV     R2,#0x8
   \   00007A   7902         MOV     R1,#0x2
   \   00007C   12....       LCALL   ??HalLedSet?relay
    494              
    495              }
    496              else
    497              {
    498              // Error occurred in request to send.
    499              }
    500              // Setup to send message again in normal period (+ a little jitter)
    501              osal_pwrmgr_device(PWRMGR_BATTERY);
   \                     ??SampleApp_SendPeriodicMessage_0:
   \   00007F                ; Setup parameters for call to function osal_pwrmgr_device
   \   00007F   7901         MOV     R1,#0x1
   \   000081   12....       LCALL   ??osal_pwrmgr_device?relay
    502              osal_start_timerEx( SampleApp_TaskID, NISL_ZLC_COUNT_EVT,
    503                   (SAMPLEAPP_SEND_PERIODIC_MSG_TIMEOUT + (osal_rand() & 0x00FF)) );
   \   000084                ; Setup parameters for call to function osal_rand
   \   000084   12....       LCALL   ?Subroutine2 & 0xFFFF
    504            }
    505            
    506          }
   \                     ??CrossCallReturnLabel_1:
   \   000087   740B         MOV     A,#0xb
   \   000089   12....       LCALL   ?DEALLOC_XSTACK8
   \   00008C   02....       LJMP    ?Subroutine1 & 0xFFFF
    507          
    508          ///*********************************************************************
    509          // * @fn      SampleApp_SendFlashMessage
    510          // *
    511          // * @brief   Send the flash message to group 1.
    512          // *
    513          // * @param   flashTime - in milliseconds
    514          // *
    515          // * @return  none
    516          // */
    517          //void SampleApp_SendFlashMessage( uint16 flashTime )
    518          //{
    519          //  uint8 buffer[3];
    520          //  buffer[0] = (uint8)(SampleAppFlashCounter++);
    521          //  buffer[1] = LO_UINT16( flashTime );
    522          //  buffer[2] = HI_UINT16( flashTime );
    523          //
    524          //  if ( AF_DataRequest( &SampleApp_Flash_DstAddr, &SampleApp_epDesc,
    525          //                       SAMPLEAPP_FLASH_CLUSTERID,
    526          //                       3,
    527          //                       buffer,
    528          //                       &SampleApp_TransID,
    529          //                       AF_DISCV_ROUTE,
    530          //                       AF_DEFAULT_RADIUS ) == afStatus_SUCCESS )
    531          //  {
    532          //  }
    533          //  else
    534          //  {
    535          //    // Error occurred in request to send.
    536          //  }
    537          //}
    538          ///*********************************************************************
    539          //*********************************************************************/
    540            

   \                                 In  segment BANKED_CODE, align 1, keep-with-next
    541          static int GetUARTValue(void)
   \                     GetUARTValue:
    542          {
   \   000000   74EC         MOV     A,#-0x14
   \   000002   12....       LCALL   ?BANKED_ENTER_XDATA
   \   000005                ; Saved register size: 20
   \   000005                ; Auto size: 0
    543            
    544            HalLedSet(HAL_LED_3,HAL_LED_MODE_TOGGLE);
   \   000005                ; Setup parameters for call to function HalLedSet
   \   000005   7A08         MOV     R2,#0x8
   \   000007   7904         MOV     R1,#0x4
   \   000009   12....       LCALL   ??HalLedSet?relay
    545            uint8 *temp = osal_mem_alloc(256);
   \   00000C                ; Setup parameters for call to function osal_mem_alloc
   \   00000C   7A00         MOV     R2,#0x0
   \   00000E   7B01         MOV     R3,#0x1
   \   000010   12....       LCALL   ??osal_mem_alloc?relay
   \   000013   8A..         MOV     ?V0 + 0,R2
   \   000015   8B..         MOV     ?V0 + 1,R3
   \   000017   AE..         MOV     R6,?V0 + 0
   \   000019   AF..         MOV     R7,?V0 + 1
    546            int sum=0;
   \   00001B   75..00       MOV     ?V0 + 0,#0x0
   \   00001E   75..00       MOV     ?V0 + 1,#0x0
    547            double timel=30000;
   \   000021   90....       MOV     DPTR,#__Constant_46ea6000
   \   000024   78..         MOV     R0,#?V0 + 4
   \   000026   12....       LCALL   ?L_MOV_X
    548            while(timel>0){
    549              SerialApp_TxLen = HalUARTRead(0, SerialApp_TxBuf, 1);
   \                     ??GetUARTValue_0:
   \   000029                ; Setup parameters for call to function HalUARTRead
   \   000029   7C01         MOV     R4,#0x1
   \   00002B   7D00         MOV     R5,#0x0
   \   00002D   7A..         MOV     R2,#SerialApp_TxBuf & 0xff
   \   00002F   7B..         MOV     R3,#(SerialApp_TxBuf >> 8) & 0xff
   \   000031   7900         MOV     R1,#0x0
   \   000033   12....       LCALL   ??HalUARTRead?relay
   \   000036   EA           MOV     A,R2
   \   000037   90....       MOV     DPTR,#SerialApp_TxLen
   \   00003A   F0           MOVX    @DPTR,A
    550              if(*SerialApp_TxBuf != 0){
   \   00003B   90....       MOV     DPTR,#SerialApp_TxBuf
   \   00003E   E0           MOVX    A,@DPTR
   \   00003F   601E         JZ      ??GetUARTValue_1
    551                sum=sum+SerialApp_TxLen;
   \   000041   90....       MOV     DPTR,#SerialApp_TxLen
   \   000044   E0           MOVX    A,@DPTR
   \   000045   F8           MOV     R0,A
   \   000046   E5..         MOV     A,?V0 + 0
   \   000048   28           ADD     A,R0
   \   000049   F5..         MOV     ?V0 + 0,A
   \   00004B   E5..         MOV     A,?V0 + 1
   \   00004D   3400         ADDC    A,#0x0
   \   00004F   F5..         MOV     ?V0 + 1,A
    552                *(temp++)=*SerialApp_TxBuf;
   \   000051   90....       MOV     DPTR,#SerialApp_TxBuf
   \   000054   E0           MOVX    A,@DPTR
   \   000055   8E82         MOV     DPL,R6
   \   000057   8F83         MOV     DPH,R7
   \   000059   F0           MOVX    @DPTR,A
   \   00005A   A3           INC     DPTR
   \   00005B   AE82         MOV     R6,DPL
   \   00005D   AF83         MOV     R7,DPH
    553              }
    554                if(sum==4){
   \                     ??GetUARTValue_1:
   \   00005F   7404         MOV     A,#0x4
   \   000061   65..         XRL     A,?V0 + 0
   \   000063   7002         JNZ     ??GetUARTValue_2
   \   000065   E5..         MOV     A,?V0 + 1
   \                     ??GetUARTValue_2:
   \   000067   6020         JZ      ??GetUARTValue_3
    555                  break;
    556              }
    557              timel--;
   \   000069   90....       MOV     DPTR,#__Constant_bf800000
   \   00006C   78..         MOV     R0,#?V0 + 8
   \   00006E   12....       LCALL   ?L_MOV_X
   \   000071   78..         MOV     R0,#?V0 + 4
   \   000073   79..         MOV     R1,#?V0 + 8
   \   000075   12....       LCALL   ?FLT_ADD
    558          //    HalLedSet(HAL_LED_3,HAL_LED_MODE_TOGGLE);
    559            }  
   \   000078   90....       MOV     DPTR,#__Constant_1
   \   00007B   78..         MOV     R0,#?V0 + 8
   \   00007D   12....       LCALL   ?L_MOV_X
   \   000080   78..         MOV     R0,#?V0 + 4
   \   000082   79..         MOV     R1,#?V0 + 8
   \   000084   12....       LCALL   ?FLT_GE
   \   000087   40A0         JC      ??GetUARTValue_0
    560              HalLedSet(HAL_LED_3,HAL_LED_MODE_TOGGLE);
   \                     ??GetUARTValue_3:
   \   000089                ; Setup parameters for call to function HalLedSet
   \   000089   7A08         MOV     R2,#0x8
   \   00008B   7904         MOV     R1,#0x4
   \   00008D   12....       LCALL   ??HalLedSet?relay
    561              if (sum)
   \   000090   E5..         MOV     A,?V0 + 0
   \   000092   45..         ORL     A,?V0 + 1
   \   000094   6018         JZ      ??GetUARTValue_4
    562              {
    563                if (HalUARTWrite(0,temp, 4))
   \   000096                ; Setup parameters for call to function HalUARTWrite
   \   000096   7C04         MOV     R4,#0x4
   \   000098   7D00         MOV     R5,#0x0
   \   00009A   EE           MOV     A,R6
   \   00009B   FA           MOV     R2,A
   \   00009C   EF           MOV     A,R7
   \   00009D   FB           MOV     R3,A
   \   00009E   7900         MOV     R1,#0x0
   \   0000A0   12....       LCALL   ??HalUARTWrite?relay
   \   0000A3   8B..         MOV     ?V0 + 1,R3
   \   0000A5   EA           MOV     A,R2
   \   0000A6   45..         ORL     A,?V0 + 1
   \   0000A8   7004         JNZ     ??GetUARTValue_4
    564                {
    565                  
    566                }
    567                else
    568                {
    569                  return 0;
   \   0000AA   7A00         MOV     R2,#0x0
   \   0000AC   8009         SJMP    ??GetUARTValue_5
    570                }
    571              }
    572            osal_mem_free(temp);
   \                     ??GetUARTValue_4:
   \   0000AE                ; Setup parameters for call to function osal_mem_free
   \   0000AE   EE           MOV     A,R6
   \   0000AF   FA           MOV     R2,A
   \   0000B0   EF           MOV     A,R7
   \   0000B1   FB           MOV     R3,A
   \   0000B2   12....       LCALL   ??osal_mem_free?relay
    573            return 1;
   \   0000B5   7A01         MOV     R2,#0x1
   \                     ??GetUARTValue_5:
   \   0000B7   7B00         MOV     R3,#0x0
   \   0000B9   7F0C         MOV     R7,#0xc
   \   0000BB   02....       LJMP    ?BANKED_LEAVE_XDATA
    574          }

   \                                 In  segment BANK_RELAYS, align 1
   \                     ??SampleApp_Init?relay:
   \   000000   12....       LCALL   ?BDISPATCH
   \   000003   ......       DC24    SampleApp_Init

   \                                 In  segment BANK_RELAYS, align 1
   \                     ??SampleApp_ProcessEvent?relay:
   \   000000   12....       LCALL   ?BDISPATCH
   \   000003   ......       DC24    SampleApp_ProcessEvent

   \                                 In  segment BANK_RELAYS, align 1
   \                     ??SampleApp_HandleKeys?relay:
   \   000000   12....       LCALL   ?BDISPATCH
   \   000003   ......       DC24    SampleApp_HandleKeys

   \                                 In  segment BANK_RELAYS, align 1
   \                     ??SampleApp_MessageMSGCB?relay:
   \   000000   12....       LCALL   ?BDISPATCH
   \   000003   ......       DC24    SampleApp_MessageMSGCB

   \                                 In  segment BANK_RELAYS, align 1
   \                     ??SampleApp_SendPeriodicMessage?relay:
   \   000000   12....       LCALL   ?BDISPATCH
   \   000003   ......       DC24    SampleApp_SendPeriodicMessage

   \                                 In  segment BANK_RELAYS, align 1
   \                     ??GetUARTValue?relay:
   \   000000   12....       LCALL   ?BDISPATCH
   \   000003   ......       DC24    GetUARTValue

   \                                 In  segment XDATA_ROM_C, align 1
   \                     `?<Constant "Group 1">`:
   \   000000   47726F75     DB "Group 1"
   \            70203100

   \                                 In  segment XDATA_ROM_C, align 1
   \                     `?<Constant "SampleApp">`:
   \   000000   53616D70     DB "SampleApp"
   \            6C654170
   \            7000    

   \                                 In  segment XDATA_ROM_C, align 1
   \                     `?<Constant "Rx:">`:
   \   000000   52783A00     DB "Rx:"

   \                                 In  segment XDATA_ROM_C, align 1
   \                     `?<Constant "\\n">`:
   \   000000   0A00         DB "\012"

   \                                 In  segment XDATA_ROM_C, align 1
   \                     `?<Constant "0123456789">`:
   \   000000   30313233     DB "0123456789"
   \            34353637
   \            383900  

   \                                 In  segment XDATA_ROM_C, align 1
   \                     __Constant_46ea6000:
   \   000000   0060EA46     DD 46EA6000H

   \                                 In  segment XDATA_ROM_C, align 1
   \                     __Constant_bf800000:
   \   000000   000080BF     DD 0BF800000H

   \                                 In  segment XDATA_ROM_C, align 1
   \                     __Constant_1:
   \   000000   01000000     DD 1H

   Maximum stack usage in bytes:

     Function                       ISTACK PSTACK XSTACK
     --------                       ------ ------ ------
     GetUARTValue                       1      0     41
       -> HalLedSet                     0      0     40
       -> osal_mem_alloc                0      0     40
       -> HalUARTRead                   0      0     40
       -> HalLedSet                     0      0     40
       -> HalUARTWrite                  0      0     40
       -> osal_mem_free                 0      0     40
     SampleApp_HandleKeys               0      0     22
       -> aps_FindGroup                 0      0     20
       -> aps_RemoveGroup               0      0     20
       -> aps_AddGroup                  0      0     20
     SampleApp_Init                     0      0     14
       -> osal_pwrmgr_task_state        0      0     22
       -> MT_UartInit                   0      0     22
       -> MT_UartRegisterTaskID         0      0     22
       -> afRegister                    0      0     22
       -> RegisterForKeys               0      0     22
       -> osal_memcpy                   0      0     28
       -> aps_AddGroup                  0      0     22
       -> ZDO_RegisterForZDOMsg         0      0     22
       -> ZDO_RegisterForZDOMsg         0      0     22
       -> HalLcdWriteString             0      0     22
     SampleApp_MessageMSGCB             0      0     24
       -> HalUARTWrite                  0      0     24
       -> HalUARTWrite                  0      0     24
       -> HalUARTWrite                  0      0     24
       -> HalLedBlink                   0      0     24
     SampleApp_ProcessEvent             0      0     12
       -> osal_msg_receive              0      0     24
       -> osal_start_timerEx            0      0     24
       -> osal_msg_deallocate           0      0     24
       -> osal_msg_receive              0      0     24
       -> SampleApp_HandleKeys          0      0     24
       -> SampleApp_MessageMSGCB        0      0     24
       -> SampleApp_SendPeriodicMessage
                                        0      0     24
       -> osal_rand                     0      0     24
       -> osal_start_timerEx            0      0     24
       -> osal_stop_timerEx             0      0     24
       -> SampleApp_SendPeriodicMessage
                                        0      0     24
     SampleApp_SendPeriodicMessage      2      0     42
       -> osal_pwrmgr_device            0      0     42
       -> GetUARTValue                  0      0     42
       -> AF_DataRequest                0      0     60
       -> HalLedSet                     0      0     42
       -> osal_pwrmgr_device            0      0     42
       -> osal_rand                     0      0     42
       -> osal_start_timerEx            0      0     42


   Segment part sizes:

     Function/Label                        Bytes
     --------------                        -----
     SampleApp_ClusterList                    4
     SampleApp_SimpleDesc                    12
     SampleApp_epDesc                         6
     SampleApp_TaskID                         1
     SampleApp_NwkState                       1
     SampleApp_TransID                        1
     SampleApp_Periodic_DstAddr              12
     SampleApp_Flash_DstAddr                 12
     SampleApp_Group                         18
     SampleAppPeriodicCounter                 1
     SampleAppFlashCounter                    1
     ZLC_Count                                1
     flag                                     2
     flagUart                                 2
     SerialApp_TxLen                          1
     SerialApp_TxBuf                         81
     SampleApp_Init                         196
     SampleApp_ProcessEvent                 210
     ?Subroutine0                             5
     ?Subroutine2                            24
     SampleApp_HandleKeys                    46
     ?Subroutine1                             5
     SampleApp_MessageMSGCB                 165
     SampleApp_SendPeriodicMessage          143
     GetUARTValue                           190
     ??SampleApp_Init?relay                   6
     ??SampleApp_ProcessEvent?relay           6
     ??SampleApp_HandleKeys?relay             6
     ??SampleApp_MessageMSGCB?relay           6
     ??SampleApp_SendPeriodicMessage?relay    6
     ??GetUARTValue?relay                     6
     ?<Constant "Group 1">                    8
     ?<Constant "SampleApp">                 10
     ?<Constant "Rx:">                        4
     ?<Constant "\n">                         2
     ?<Constant "0123456789">                11
     __Constant_46ea6000                      4
     __Constant_bf800000                      4
     __Constant_1                             4

 
 984 bytes in segment BANKED_CODE
  36 bytes in segment BANK_RELAYS
  63 bytes in segment XDATA_ROM_C
 140 bytes in segment XDATA_Z
 
 1 020 bytes of CODE  memory
    51 bytes of CONST memory (+ 12 bytes shared)
   140 bytes of XDATA memory

Errors: none
Warnings: none
